Archive member included because of file (symbol)

../bwlib\libavi.a(aviEncoder.o)
                              ./Debug/video_video_record.c.o (aviEncodeInit)
../bwlib\libavi.a(encoder_std.o)
                              ../bwlib\libavi.a(aviEncoder.o) (avi_encoder_std)
../bwlib\libavi.a(encoder_odml.o)
                              ../bwlib\libavi.a(aviEncoder.o) (avi_odmlAddoffset)
../bwlib\libfs.a(fs.o)        ./Debug/task_deamon.c.o (fs_nodeinit)
../bwlib\libfs.a(diskio.o)    ./Debug/main.c.o (fs_init)
../bwlib\libfs.a(link_ext.o)  ./Debug/task_image_encode.c.o (f_unlink_ext_service)
../bwlib\libfs.a(ff.o)        ../bwlib\libfs.a(fs.o) (clst2sect)
../bwlib\libfs.a(ffunicode.o)
                              ../bwlib\libfs.a(ff.o) (ff_uni2oem)
../bwlib\libsd.a(ax32xx_sd.o)
                              ./Debug/src_hal_sd.c.o (ax32xx_sd0Init)
C:/MinGW-4.7.1/or1k-elf/lib/no-delay\libc.a(lib_a-memcmp.o)
                              ../bwlib\libfs.a(ff.o) (memcmp)
C:/MinGW-4.7.1/or1k-elf/lib/no-delay\libc.a(lib_a-memcpy.o)
                              ./Debug/resource_manager.c.o (memcpy)
C:/MinGW-4.7.1/or1k-elf/lib/no-delay\libc.a(lib_a-memset.o)
                              ./Debug/main.c.o (memset)
C:/MinGW-4.7.1/or1k-elf/lib/no-delay\libc.a(lib_a-strcat.o)
                              ./Debug/resource_manager.c.o (strcat)
C:/MinGW-4.7.1/or1k-elf/lib/no-delay\libc.a(lib_a-strchr.o)
                              ../bwlib\libfs.a(ff.o) (strchr)
C:/MinGW-4.7.1/or1k-elf/lib/no-delay\libc.a(lib_a-strcmp.o)
                              ./Debug/resource_manager.c.o (strcmp)
C:/MinGW-4.7.1/or1k-elf/lib/no-delay\libc.a(lib_a-strcpy.o)
                              ./Debug/resource_manager.c.o (strcpy)
C:/MinGW-4.7.1/or1k-elf/lib/no-delay\libc.a(lib_a-strlen.o)
                              ./Debug/resource_manager.c.o (strlen)
C:/MinGW-4.7.1/or1k-elf/lib/no-delay\libc.a(lib_a-strncmp.o)
                              ./Debug/resource_manager.c.o (strncmp)
C:/MinGW-4.7.1/lib/gcc/or1k-elf/4.9.1/no-delay\libgcc.a(_udivdi3.o)
                              ../bwlib\libfs.a(ff.o) (__udivdi3)
C:/MinGW-4.7.1/lib/gcc/or1k-elf/4.9.1/no-delay\libgcc.a(__udivsi3.o)
                              C:/MinGW-4.7.1/lib/gcc/or1k-elf/4.9.1/no-delay\libgcc.a(_udivdi3.o) (__udivsi3)
C:/MinGW-4.7.1/lib/gcc/or1k-elf/4.9.1/no-delay\libgcc.a(__umodsi3.o)
                              C:/MinGW-4.7.1/lib/gcc/or1k-elf/4.9.1/no-delay\libgcc.a(_udivdi3.o) (__umodsi3)
C:/MinGW-4.7.1/lib/gcc/or1k-elf/4.9.1/no-delay\libgcc.a(_clz.o)
                              C:/MinGW-4.7.1/lib/gcc/or1k-elf/4.9.1/no-delay\libgcc.a(_udivdi3.o) (__clz_tab)

Allocating common symbols
Common symbol       size              file

fp_jpegdc_ldone_hal
                    0x4               ./Debug/mjpeg_ax32xx_mjpeg.c.o
fp_tmnow            0x4               ../bwlib\libfs.a(diskio.o)
fp_storage_wr       0x4               ../bwlib\libfs.a(diskio.o)
fp11_epout_isr_hal  0x4               ./Debug/main.c.o
jpegCache           0x4               ./Debug/multimedia_user_media.c.o
fp_stat_isr         0x4               ./Debug/isp_hal_isp.c.o
fp_ae_isr           0x4               ./Debug/isp_hal_isp.c.o
usb_varm            0x1c              ./Debug/main.c.o
WAV_TYPE_E          0x4               ./Debug/main.c.o
fp_uvc_off_hal      0x4               ./Debug/dusb_hal_usb_dev_enum.c.o
SysCtrl             0x64              ./Debug/main.c.o
audsIStack          0xc               ./Debug/multimedia_user_media.c.o
jpegBStack          0x8               ./Debug/multimedia_user_media.c.o
fp_epout_isr_hal    0x4               ./Debug/main.c.o
tempFileName2       0x1c              ./Debug/task_video_record.c.o
audioCache          0x4               ./Debug/multimedia_user_media.c.o
fp11_host_connect_hal
                    0x4               ./Debug/src_ax32xx_usb.c.o
fp_uvc_on_hal       0x4               ./Debug/dusb_hal_usb_dev_enum.c.o
pcm_buf             0x4               ./Debug/src_hal_auadc.c.o
mediaVideoCtrlB     0x94              ./Debug/main.c.o
uac_onflg           0x1               ./Debug/dusb_hal_usb_dev_enum.c.o
aviIdx1CacheB       0x4               ./Debug/multimedia_user_media.c.o
scsi                0x18              ./Debug/dusb_hal_usb_msc.c.o
uart_buff_len       0x4               ./Debug/image_image_encode.c.o
tempFileName1       0x1c              ./Debug/task_video_record.c.o
usb_rqu             0x8               ./Debug/dusb_hal_usb_dev_enum.c.o
fp_disk_rd          0x4               ./Debug/dusb_hal_usb_msc.c.o
sofcnt              0x2               ./Debug/src_ax32xx_usb.c.o
ispstat             0x8c0             ./Debug/src_ax32xx_isp.c.o
pack_len            0x1               ./Debug/image_image_encode.c.o
fp_sensor_exposure  0x4               ./Debug/isp_hal_isp.c.o
UacSampFreq         0x3               ./Debug/dusb_hal_usb_uac.c.o
audsTStack          0xc               ./Debug/multimedia_user_media.c.o
fp_disk_cap         0x4               ./Debug/dusb_hal_usb_msc.c.o
ptgl                0x4               ./Debug/dusb_hal_usb_uvc.c.o
fp_uac_on_hal       0x4               ./Debug/dusb_hal_usb_dev_enum.c.o
rtcSecondISR        0x4               ./Debug/src_ax32xx_rtc.c.o
isp                 0x3c              ./Debug/src_ax32xx_isp.c.o
fp_host_remove_hal  0x4               ./Debug/src_ax32xx_usb.c.o
fp11_host_remove_hal
                    0x4               ./Debug/src_ax32xx_usb.c.o
fp_disk_online      0x4               ./Debug/dusb_hal_usb_msc.c.o
fp_usb_bulk_tx      0x4               ./Debug/dusb_hal_usb_msc.c.o
fp_disk_stop        0x4               ./Debug/dusb_hal_usb_msc.c.o
rtcAlamISR          0x4               ./Debug/src_ax32xx_rtc.c.o
uart_buff           0x4               ./Debug/image_image_encode.c.o
audiobuff           0x8000            ./Debug/main.c.o
uaconflg            0x1               ./Debug/dusb_hal_usb_uac.c.o
fp_usb_bulk_rx      0x4               ./Debug/dusb_hal_usb_msc.c.o
using_contrast      0x100             ./Debug/src_ax32xx_isp.c.o
vidsBStack          0x14              ./Debug/multimedia_user_media.c.o
block_scaler_tab    0x60              ./Debug/mjpeg_ax32xx_mjpeg.c.o
jpegIStack          0x8               ./Debug/multimedia_user_media.c.o
pack_total          0x1               ./Debug/image_image_encode.c.o
usb_dev             0x1c              ./Debug/dusb_hal_usb_dev_enum.c.o
fp_disk_busy        0x4               ./Debug/dusb_hal_usb_msc.c.o
pack_total_len      0x1               ./Debug/image_image_encode.c.o
image_enc_stat      0x2               ./Debug/image_image_encode.c.o
devSensor_Cmd       0xc80             ./Debug/cmos_sensor_cmos_sensor.c.o
mscbusy             0x1               ./Debug/src_ax32xx_usb.c.o
fp_usb_isr          0x4               ./Debug/src_ax32xx_int.c.o
fp_uac_unit_ctl_hal
                    0x4               ./Debug/main.c.o
lsc_tab             0x478             ./Debug/src_ax32xx_isp.c.o
auadcbuff           0x2000            ./Debug/src_hal_auadc.c.o
XOSNesting          0x1               ./Debug/xos_xos.c.o
fp_f_write          0x4               ../bwlib\libfs.a(diskio.o)
audsBStack          0xc               ./Debug/multimedia_user_media.c.o
fp_storage_sta      0x4               ../bwlib\libfs.a(diskio.o)
smph_dmacopy        0x1               ./Debug/src_ax32xx_sys.c.o
snser               0x14              ./Debug/src_hal_csi.c.o
RGB_GMMA            0x300             ./Debug/src_ax32xx_isp.c.o
pSetReqCallback     0x4               ./Debug/dusb_hal_usb_dev_enum.c.o
fp_UacHandleToStreaming
                    0x4               ./Debug/main.c.o
fp_usb_ep0_tx       0x4               ./Debug/dusb_hal_usb_uvc.c.o
thumbnailUVBuffer   0x4               ./Debug/multimedia_user_media.c.o
fp_uac_off_hal      0x4               ./Debug/dusb_hal_usb_dev_enum.c.o
fp_storage_rd       0x4               ../bwlib\libfs.a(diskio.o)
javgsize            0x4               ./Debug/mjpeg_ax32xx_mjpeg.c.o
fp_disk_free        0x4               ./Debug/dusb_hal_usb_msc.c.o
UacMuteControl      0x1               ./Debug/dusb_hal_usb_uac.c.o
fp_disk_wr          0x4               ./Debug/dusb_hal_usb_msc.c.o
fp_uvc_probe_ctl_hal
                    0x4               ./Debug/dusb_hal_usb_uvc.c.o
speed               0x4               ./Debug/src_hal_sd.c.o
aviIdx1Cache        0x4               ./Debug/multimedia_user_media.c.o
Y_GMA               0x200             ./Debug/src_ax32xx_isp.c.o
fp_uvc_unit_ctl_ex_hal
                    0x4               ./Debug/dusb_hal_usb_uvc.c.o
EP0WaitForSetReqData
                    0x1               ./Debug/main.c.o
timerISR            0x10              ./Debug/src_ax32xx_timer.c.o
fp_host11_remove_hal
                    0x4               ./Debug/src_ax32xx_usb.c.o
fp_usb11_isr        0x4               ./Debug/src_ax32xx_int.c.o
fp_host11_connect_hal
                    0x4               ./Debug/src_ax32xx_usb.c.o
fp_awb_isr          0x4               ./Debug/isp_hal_isp.c.o
devSensor_Ident     0x48              ./Debug/cmos_sensor_cmos_sensor.c.o
csifcnt             0x4               ./Debug/csi_ax32xx_csi.c.o
thumbnailYBuffer    0x4               ./Debug/multimedia_user_media.c.o
wdt_en              0x4               ./Debug/src_ax32xx_wdt.c.o
vidsIStack          0x14              ./Debug/multimedia_user_media.c.o
fp_usb_iso_tx       0x4               ./Debug/dusb_hal_usb_uvc.c.o
uvc_onflg           0x1               ./Debug/dusb_hal_usb_dev_enum.c.o
fp_host_connect_hal
                    0x4               ./Debug/src_ax32xx_usb.c.o
fp_uvc_unit_ctl_hal
                    0x4               ./Debug/dusb_hal_usb_uvc.c.o
fp_storage_init     0x4               ../bwlib\libfs.a(diskio.o)
mediaVideoCtrl      0x94              ./Debug/main.c.o
UacVolCtrlSettings  0x8               ./Debug/dusb_hal_usb_uac.c.o
MscCmd              0x44              ./Debug/dusb_hal_usb_msc.c.o
CHANNEL_EXCHANGE_E  0x4               ./Debug/main.c.o

Memory Configuration

Name             Origin             Length             Attributes
boot             0x01fffc00         0x00000200
ram_boot         0x00000000         0x00005000
ram_user         0x00000000         0x00005000
usbfifo          0x00008000         0x00001000
sdram            0x02000000         0x00200000
exsdram          0x00000000         0x00800000
*default*        0x00000000         0xffffffff

Linker script and memory map

LOAD ./Debug/ax32xx_reset.S.o
LOAD ./Debug/ax32xx_spi_boot_cfg.S.o
LOAD ./Debug/ax32xx_BLDRX32.S.o
LOAD ./Debug/main.c.o
LOAD ./Debug/resource_manager.c.o
LOAD ./Debug/task_audio_playback.c.o
LOAD ./Debug/task_audio_record.c.o
LOAD ./Debug/task_deamon.c.o
LOAD ./Debug/task_image_encode.c.o
LOAD ./Debug/task_main.c.o
LOAD ./Debug/task_usb.c.o
LOAD ./Debug/task_video_playback.c.o
LOAD ./Debug/task_video_record.c.o
LOAD ./Debug/upgrade.c.o
LOAD ./Debug/board.c.o
LOAD ./Debug/board_bwv1.c.o
LOAD ./Debug/config.c.o
LOAD ./Debug/explorer.c.o
LOAD ./Debug/filelist.c.o
LOAD ./Debug/task_usb_host.c.o
LOAD ./Debug/xos_x_cpu.c.o
LOAD ./Debug/xos_xmbox.c.o
LOAD ./Debug/xos_xmsgq.c.o
LOAD ./Debug/xos_xos.c.o
LOAD ./Debug/xos_xwork.c.o
LOAD ./Debug/multimedia_user_media.c.o
LOAD ./Debug/src_ax32xx_int.c.o
LOAD ./Debug/src_ax32xx_sys.c.o
LOAD ./Debug/src_ax32xx_dma.c.o
LOAD ./Debug/src_ax32xx_wdt.c.o
LOAD ./Debug/src_ax32xx_gpio.c.o
LOAD ./Debug/src_ax32xx_uart.c.o
LOAD ./Debug/src_ax32xx_timer.c.o
LOAD ./Debug/src_ax32xx_tminf.c.o
LOAD ./Debug/src_ax32xx_spi.c.o
LOAD ./Debug/src_ax32xx_rtc.c.o
LOAD ./Debug/src_ax32xx_md.c.o
LOAD ./Debug/src_ax32xx_iic.c.o
LOAD ./Debug/src_ax32xx_dac.c.o
LOAD ./Debug/src_ax32xx_adc.c.o
LOAD ./Debug/src_ax32xx_auadc.c.o
LOAD ./Debug/src_ax32xx_isp.c.o
LOAD ./Debug/src_jpeg_table.c.o
LOAD ./Debug/src_isp_tab.c.o
LOAD ./Debug/src_ax32xx_usb.c.o
LOAD ./Debug/src_ax32xx_misc.c.o
LOAD ./Debug/src_ax32xx_pip.c.o
LOAD ./Debug/src_ax32xx_btuart.c.o
LOAD ./Debug/src_ax32xx_crc.c.o
LOAD ./Debug/src_ax32xx_emi.c.o
LOAD ./Debug/src_ax32xx_rotate.c.o
LOAD ./Debug/src_ax32xx_osdcmp.c.o
LOAD ./Debug/osd_ax32xx_osd.c.o
LOAD ./Debug/csi_ax32xx_csi.c.o
LOAD ./Debug/lcd_ax32xx_lcd.c.o
LOAD ./Debug/mjpeg_ax32xx_mjpeg.c.o
LOAD ./Debug/src_hal_adc.c.o
LOAD ./Debug/src_hal_csi.c.o
LOAD ./Debug/src_hal_dac.c.o
LOAD ./Debug/src_hal_eeprom.c.o
LOAD ./Debug/src_hal_gpio.c.o
LOAD ./Debug/src_hal_iic.c.o
LOAD ./Debug/src_hal_lcd.c.o
LOAD ./Debug/src_hal_md.c.o
LOAD ./Debug/src_hal_osd.c.o
LOAD ./Debug/src_hal_rtc.c.o
LOAD ./Debug/src_hal_sd.c.o
LOAD ./Debug/src_hal_spi.c.o
LOAD ./Debug/src_hal_timer.c.o
LOAD ./Debug/src_hal_uart.c.o
LOAD ./Debug/src_hal_watermark.c.o
LOAD ./Debug/src_hal_sys.c.o
LOAD ./Debug/src_hal_auadc.c.o
LOAD ./Debug/src_hal_mjpeg.c.o
LOAD ./Debug/src_hal_int.c.o
LOAD ./Debug/src_hal_wdt.c.o
LOAD ./Debug/src_hal_stream.c.o
LOAD ./Debug/src_hal_emi.c.o
LOAD ./Debug/src_hal_mjpegB.c.o
LOAD ./Debug/src_hal_osdcmp.c.o
LOAD ./Debug/src_hal_rotate.c.o
LOAD ./Debug/src_hal_lcdframe.c.o
LOAD ./Debug/isp_hal_isp.c.o
LOAD ./Debug/dusb_hal_usb_api.c.o
LOAD ./Debug/dusb_hal_usb_dev_enum.c.o
LOAD ./Debug/dusb_hal_usb_msc.c.o
LOAD ./Debug/dusb_hal_usb_uac.c.o
LOAD ./Debug/dusb_hal_usb_uvc.c.o
LOAD ./Debug/husb_hal_usb_host_api.c.o
LOAD ./Debug/husb_hal_usb_host_enum.c.o
LOAD ./Debug/husb_hal_usb_host_tpbulk.c.o
LOAD ./Debug/husb_hal_usb_host_uvc.c.o
LOAD ./Debug/husb_hal_usensor.c.o
LOAD ./Debug/audio_audio_playback.c.o
LOAD ./Debug/audio_audio_record.c.o
LOAD ./Debug/audio_ring_buffer.c.o
LOAD ./Debug/video_video_playback.c.o
LOAD ./Debug/video_video_record.c.o
LOAD ./Debug/video_video_record_B.c.o
LOAD ./Debug/image_image_decode.c.o
LOAD ./Debug/image_image_encode.c.o
LOAD ./Debug/wav_alaw.c.o
LOAD ./Debug/wav_imaadpcm.c.o
LOAD ./Debug/wav_pcm.c.o
LOAD ./Debug/wav_ulaw.c.o
LOAD ./Debug/wav_wav.c.o
LOAD ./Debug/stream_stream.c.o
LOAD ./Debug/uartcom_uartcom.c.o
LOAD ./Debug/uartcom_uartCrc.c.o
LOAD ./Debug/gsensor_G_gma301.c.o
LOAD ./Debug/gsensor_gsensor.c.o
LOAD ./Debug/gsensor_G_sc7a30e.c.o
LOAD ./Debug/gsensor_g_da380.c.o
LOAD ./Debug/cmos_sensor_cmos_sensor.c.o
LOAD ./Debug/cmos_sensor_SENSOR_BF3a03.c.o
LOAD ./Debug/cmos_sensor_SENSOR_BF2013.c.o
LOAD ./Debug/cmos_sensor_SENSOR_BF3016.c.o
LOAD ./Debug/cmos_sensor_SENSOR_BF3703.c.o
LOAD ./Debug/cmos_sensor_SENSOR_GC0307.c.o
LOAD ./Debug/cmos_sensor_SENSOR_GC0308.c.o
LOAD ./Debug/cmos_sensor_SENSOR_GC0309.c.o
LOAD ./Debug/cmos_sensor_SENSOR_GC0328.c.o
LOAD ./Debug/cmos_sensor_SENSOR_GC1004.c.o
LOAD ./Debug/cmos_sensor_SENSOR_H42.c.o
LOAD ./Debug/cmos_sensor_SENSOR_H7640.c.o
LOAD ./Debug/cmos_sensor_SENSOR_HM1055.c.o
LOAD ./Debug/cmos_sensor_SENSOR_IT03A1.c.o
LOAD ./Debug/cmos_sensor_SENSOR_NT99141.c.o
LOAD ./Debug/cmos_sensor_SENSOR_NT99142.c.o
LOAD ./Debug/cmos_sensor_SENSOR_OV7670.c.o
LOAD ./Debug/cmos_sensor_SENSOR_OV7725.c.o
LOAD ./Debug/cmos_sensor_SENSOR_OV9710.c.o
LOAD ./Debug/cmos_sensor_SENSOR_OV9732.c.o
LOAD ./Debug/cmos_sensor_SENSOR_SC1045.c.o
LOAD ./Debug/cmos_sensor_SENSOR_SIV100B.c.o
LOAD ./Debug/cmos_sensor_SENSOR_SIV120B.c.o
LOAD ./Debug/cmos_sensor_SENSOR_SIV121DS.c.o
LOAD ./Debug/cmos_sensor_SENSOR_SP1409.c.o
LOAD ./Debug/cmos_sensor_SENSOR_H62.c.o
LOAD ./Debug/cmos_sensor_SENSOR_GC1034.c.o
LOAD ./Debug/cmos_sensor_SENSOR_OV7736.c.o
LOAD ./Debug/cmos_sensor_SENSOR_SP140A.c.o
LOAD ./Debug/cmos_sensor_SENSOR_GC1054.c.o
LOAD ./Debug/cmos_sensor_SENSOR_GC1064.c.o
LOAD ./Debug/cmos_sensor_SENSOR_H65.c.o
LOAD ./Debug/cmos_sensor_SENSOR_SC1243.c.o
LOAD ./Debug/cmos_sensor_SNESOR_FPX1002.c.o
LOAD ./Debug/cmos_sensor_SENSOR_H63P.c.o
LOAD ./Debug/cmos_sensor_SENSOR_BF20A6.c.o
LOAD ./Debug/tft_lcd_lcd_mcu_st7789.c.o
LOAD ./Debug/tft_lcd_lcd_rgb_jl_lcd.c.o
LOAD ./Debug/tft_lcd_lcd_rgb_st7282.c.o
LOAD ./Debug/tft_lcd_tft_lcd.c.o
LOAD ./Debug/tft_lcd_lcd_mcu_5420.c.o
LOAD ./Debug/tft_lcd_lcd_mcu_r61509v.c.o
LOAD ./Debug/tft_lcd_lcd_rgb_ili8961.c.o
LOAD ./Debug/tft_lcd_lcd_rgb_ili9342c.c.o
LOAD ./Debug/tft_lcd_lcd_mcu_ili9328.c.o
LOAD ./Debug/tft_lcd_lcd_mcu_hx8352b.c.o
LOAD ./Debug/tft_lcd_lcd_mcu_st7789v.c.o
LOAD ./Debug/tft_lcd_lcd_mcu_hx8352c.c.o
LOAD ./Debug/tft_lcd_lcd_mcu_hx8357b.c.o
LOAD ./Debug/tft_lcd_lcd_rgb_ili9806e.c.o
LOAD ./Debug/tft_lcd_lcd_rgb_ota5182.c.o
LOAD ./Debug/tft_lcd_lcd_rgb_st7701.c.o
LOAD ./Debug/tft_lcd_lcd_mcu_lgdp4532.c.o
LOAD ./Debug/tft_lcd_lcd_mcu_9225G.c.o
LOAD ./Debug/usensor_237a_1.c.o
LOAD ./Debug/usensor_usensor.c.o
LOAD ./Debug/usensor_237a_2.c.o
LOAD ./Debug/nvfs_nvfs.c.o
LOAD ./Debug/res_ascii.c.o
LOAD ./Debug/res_ascii_default.c.o
LOAD ./Debug/res_ascii_default_draw.c.o
LOAD ./Debug/res_ascii_num2.c.o
LOAD ./Debug/res_ascii_num2_draw.c.o
LOAD ./Debug/res_ascii_num3.c.o
LOAD ./Debug/res_ascii_num3_draw.c.o
LOAD ./Debug/res_ascii_num4.c.o
LOAD ./Debug/res_ascii_num4_draw.c.o
LOAD ./Debug/res_R.c.o
LOAD ../bwlib\libavi.a
LOAD ../bwlib\libfs.a
LOAD ../bwlib\libsd.a
LOAD C:/MinGW-4.7.1/or1k-elf/lib/no-delay\libc.a
LOAD C:/MinGW-4.7.1/lib/gcc/or1k-elf/4.9.1/no-delay\libgcc.a

.bootsec        0x01fffc00      0x200 load address 0x00000000
 *(.bootsec)
 .bootsec       0x01fffc00      0x200 ./Debug/ax32xx_BLDRX32.S.o
                0x01fffc10                hex
                0x01fffc10                .hex
                0x01fffd8c                .bootsect

.exception      0x00000000     0x257c load address 0x00000200
                0x00000000                _exception_vma = .
 *(.vector)
 .vector        0x00000000      0x3f0 ./Debug/ax32xx_reset.S.o
                0x00000320                _start
                0x0000035c                _step_in
                0x000003a0                _step_out
 *(.vector.text)
 .vector.text   0x000003f0     0x1d88 ./Debug/src_ax32xx_int.c.o
                0x00000534                exception_uart_puts
                0x00000548                memcpy_flash2psram
                0x000005a0                flash_to_psram
                0x000006a0                exception_init
                0x0000076c                ax32xx_vddrtcCalculate
                0x00000798                my_memset
                0x000007c8                delay
                0x000007f0                my_putchar
                0x00000804                myputs
                0x0000082c                my_putword
                0x00000840                dllcon_init
                0x000009ec                sdram_init
                0x00000ae8                adcRead
                0x00000b40                adcConverStart
                0x00000b64                adcSetBaudrate
                0x00000b94                sysClkSet
                0x00000bf0                adcEnable
                0x00000c58                adcGetChannel
                0x00000c90                sdram_tuning_check_2
                0x00000e10                _sdr_tuning2_conifg_set
                0x00000e30                check_if_xosc_exist
                0x00000f04                init_sys_clk
                0x00001344                ax32xx_WriteByte
                0x00001394                ax32xx_DataWrite
                0x0000141c                ax32xx_WKOEnable2
                0x00001478                sdram_clock_tune
                0x00001ec4                exception
                0x0000215c                exception_trigger
 *(.vector.data)
 .vector.data   0x00002178      0x100 ./Debug/ax32xx_reset.S.o
                0x00002178                _step_data
 .vector.data   0x00002278      0x304 ./Debug/src_ax32xx_int.c.o
                0x00002278                tune_values
                0x000023f8                tune_by
                0x00002404                tune_tab_2_dll
                0x00002414                tune_tab_1_dll
                0x00002424                tune_tab_2_clk
                0x00002444                tune_tab_1_clk
                0x00002464                tuning_test_addr
                0x000024e4                tuning_test_data
                0x00002564                SDRTUN2_CON
                0x00002568                sdr_tune_source
                0x0000256c                chip_vision

.ram            0x00002580     0x28e0 load address 0x00002780
                0x00002580                __sram_start = .
 *(.msk_var_use)
 *(.sdc_buf)
 .sdc_buf       0x00002580       0x40 ../bwlib\libsd.a(ax32xx_sd.o)
 *(.sram_comm)
 .sram_comm     0x000025c0       0x60 ./Debug/xos_xmsgq.c.o
 .sram_comm     0x00002620      0x280 ./Debug/src_ax32xx_isp.c.o
                0x00002620                csi_stat
 .sram_comm     0x000028a0     0x25c0 ./Debug/src_hal_sys.c.o
                0x000028a0                ramuse
                0x00004e60                __sram_end = .

.fifo           0x00008000      0xce0
                0x00008000                __ufifo_start = .
 *(.sram_Usbfifo)
 .sram_Usbfifo  0x00008000      0xce0 ./Debug/src_hal_sys.c.o
                0x00008000                usbfifo
                0x00008ce0                __ufifo_end = .

.text           0x02000000    0x4e458 load address 0x00002800
                0x02000000                _text_start = .
 *(.text*)
 .text          0x02000000        0x0 ./Debug/ax32xx_reset.S.o
 .text          0x02000000        0x0 ./Debug/ax32xx_spi_boot_cfg.S.o
 .text          0x02000000        0x0 ./Debug/ax32xx_BLDRX32.S.o
 .text          0x02000000      0x764 ./Debug/main.c.o
                0x02000000                uninit
                0x02000298                init
                0x02000680                systemEventService
 .text.startup  0x02000764      0x114 ./Debug/main.c.o
                0x02000764                main
 .text          0x02000878     0x1fb8 ./Debug/resource_manager.c.o
                0x020009b4                managerInit
                0x02000a2c                managerCreate
                0x02000b04                managerDestory
                0x02000b7c                managerFileCount
                0x02000c14                managerFileCountEx
                0x02000c80                managerLockFile
                0x02000cf8                managerLockFileExt
                0x02000da0                managerUnlockFileExt
                0x02000e4c                managerCheckLock
                0x02000e88                managerCheckLockExt
                0x02000f10                managerFlush
                0x02000f7c                managerDelFileByIndex
                0x0200108c                managerDelFileAll
                0x02001170                managerScanStart
                0x020011d8                managerScanEnd
                0x020012b4                explorerListHook
                0x020012cc                managerNameChange
                0x020014c4                managerSpaceCheck
                0x0200197c                manangerCheckFileType
                0x02001bc0                managerAddFile
                0x02001cb0                managerAddFileEx
                0x02001d10                managerRenameExt
                0x02001db0                managerRename
                0x02001e70                managerUnlockFile
                0x02001f30                managerDelFileByName
                0x0200208c                managerDelFileByFullName
                0x0200220c                managerFileNameCreater
                0x02002420                managerFileScan
                0x02002608                manangerGetFileFullPathName
                0x020026bc                manangerGetFileName
                0x02002754                manangerFindFileAndDel
 .text          0x02002830      0x248 ./Debug/task_audio_playback.c.o
                0x0200292c                task_audio_playback
 .text          0x02002a78      0x4e0 ./Debug/task_audio_record.c.o
                0x02002a78                audio_record_callback
                0x02002c00                task_audio_record
 .text          0x02002f58      0xf20 ./Debug/task_deamon.c.o
                0x02002f58                deamon_key_check
                0x02002fe4                deamon_fs_scan
                0x02003274                deamon_astern_check
                0x02003390                reflush_usensor_check
                0x020033f4                setSoftwareDetachUsensor
                0x02003414                deamon_usb_check
                0x020035c4                deamon_gsensor_check
                0x020035d8                deamon_led_check
                0x020038b8                deamon_screen_save
                0x020038d0                deamon_auto_poweroff
                0x020039dc                deamon_event_handler
                0x02003a78                deamon_keysound_play
                0x02003a90                deamon_fsFreeSize
                0x02003b38                deamon_sdc_check
                0x02003d4c                task_deamon
                0x02003de4                deamon_fsSizeModify
 .text          0x02003e78      0x534 ./Debug/task_image_encode.c.o
                0x02003e78                task_image_set_take_flag
                0x02003e98                task_image_get_take_flag
                0x02003eb8                task_image_createfile
                0x02003ff0                task_image_encode
 .text          0x020043ac      0x204 ./Debug/task_main.c.o
                0x020043ac                task_set_state
                0x020043d8                task_main
                0x020044d0                task_get_state
                0x02004514                task_get_curstate
                0x02004534                task_change_state
 .text          0x020045b0      0x10c ./Debug/task_usb.c.o
                0x020045b0                task_usb
 .text          0x020046bc       0x28 ./Debug/task_video_playback.c.o
                0x020046bc                video_playback_start
                0x020046d0                task_video_playback
 .text          0x020046e4      0xe10 ./Debug/task_video_record.c.o
                0x0200477c                task_video_record_caltime
                0x020047e4                video_record_callback
                0x0200507c                task_video_record
 .text          0x020054f4      0x324 ./Debug/upgrade.c.o
                0x020054f4                upgrade
 .text          0x02005818      0x378 ./Debug/board.c.o
                0x02005818                boardInit
                0x020059a8                boardOpen
                0x02005a4c                boardIoctrl
                0x02005ad4                boardNameIoctrl
 .text          0x02005b90      0x758 ./Debug/board_bwv1.c.o
 .text          0x020062e8      0x274 ./Debug/config.c.o
                0x020062e8                configCheckSumCal
                0x0200632c                userConfigSave
                0x020063b0                userConfigReset
                0x02006404                userConfigInitial
                0x020064e0                configSet
                0x0200651c                configGet
 .text          0x0200655c        0x0 ./Debug/explorer.c.o
 .text          0x0200655c      0xe38 ./Debug/filelist.c.o
 .text          0x02007394       0x18 ./Debug/task_usb_host.c.o
                0x02007394                task_usb_host
 .text          0x020073ac        0x0 ./Debug/xos_x_cpu.c.o
 .text          0x020073ac      0x1b0 ./Debug/xos_xmbox.c.o
                0x020073ac                XMboxInit
                0x020073ec                XMboxCreate
                0x02007474                XMboxDestory
                0x020074ac                XMboxPost
                0x02007500                XMboxPend
 .text          0x0200755c      0x2e4 ./Debug/xos_xmsgq.c.o
                0x0200755c                XMsgQInit
                0x0200759c                XMsgQCreate
                0x0200762c                XMsgQDestory
                0x02007664                XMsgQFlush
                0x020076a4                XMsgQPost
                0x0200771c                XMsgQPostFront
                0x02007798                XMsgQPend
                0x02007828                XMsgQCheck
 .text          0x02007840      0x12c ./Debug/xos_xos.c.o
                0x02007840                XOSInit
                0x02007880                XOSTickService
                0x020078f0                XOSTimeGet
                0x02007910                XOSTimeDly
                0x0200794c                XOSRandom
 .text          0x0200796c      0x168 ./Debug/xos_xwork.c.o
                0x0200796c                XWorkInit
                0x020079ac                XWorkCreate
                0x02007a38                XWorkDestory
                0x02007a68                XWorkService
 .text          0x02007ad4        0x0 ./Debug/multimedia_user_media.c.o
 .text          0x02007ad4      0x364 ./Debug/src_ax32xx_int.c.o
                0x02007ad4                ax32xx_intHandler
                0x02007ae8                fast_isr
                0x02007ba4                slow_isr
                0x02007c64                ax32xx_intEnable
                0x02007cac                ax32xx_int_priority
                0x02007cf4                ax32xx_intInit
 .text          0x02007e38      0xa14 ./Debug/src_ax32xx_sys.c.o
                0x02007e38                ax32xx_sysCpuMsDelay
                0x02007e74                ax32xx_sysCpuNopDelay
                0x02007e9c                ax32xx_sysDcacheInit
                0x02007ee0                ax32xx_sysIcacheInit
                0x02007f24                ax32xx_sysDcacheWback
                0x02007fa0                ax32xx_sysDcacheFlush
                0x0200801c                ax32xx_sysDcacheInvalid
                0x02008098                ax32xx_sysSRAMClear
                0x020080ec                ax32xx_sysBSSClear
                0x02008150                ax32xx_sysLDOSet
                0x02008334                ax32xx_sysClkSet
                0x02008390                ax32xx_sysReset
                0x020083d0                ax32xx_sys_dma_memdown
                0x02008434                ax32xx_sys_dma_memkick
                0x020084f8                ax32xx_mcpy_gram2ufifo
                0x02008558                ax32xx_mcpy1_sdram2gram
                0x020085fc                ax32xx_sysInit
                0x0200878c                ax32xx_sysUninit
 .text          0x0200884c      0x298 ./Debug/src_ax32xx_dma.c.o
                0x0200884c                ax32xx_dmaNocCfg
                0x02008a74                ax32xx_dmaNocDefault
                0x02008a9c                ax32xx_dmaChannelEnable
 .text          0x02008ae4       0x98 ./Debug/src_ax32xx_wdt.c.o
                0x02008ae4                ax32xx_wdtEnable
                0x02008b18                ax32xx_wdtTimeSet
                0x02008b2c                ax32xx_wdtClear
                0x02008b60                ax32xx_wdtReset
 .text          0x02008b7c      0xb08 ./Debug/src_ax32xx_gpio.c.o
                0x02008b7c                ax32xx_gpioSFRSet
                0x02008dc0                ax32xx_gpioDirSet
                0x02008e64                ax32xx_gpioPullSet
                0x02008f30                ax32xx_gpioDrvSet
                0x02008fc0                ax32xx_gpioDataSet
                0x0200904c                ax32xx_gpioDataGrounpSet
                0x020090c8                ax32xx_gpioDataGet
                0x0200914c                ax32xx_gpioMapSet
                0x020091dc                ax32xx_gpioDigitalSet
                0x0200926c                ax32xx_gpioHystersisSet
                0x020092fc                ax32xx_gpioLedPull
                0x020093c8                ax32xx_gpioLedInit
                0x02009458                ax32xx_gpioINTCheck
                0x02009490                ax32xx_gpioINTClear
                0x020094b8                ax32xx_gpioINTInit
                0x020095e8                ax32xx_gpioIRQHandler
 .text          0x02009684      0x408 ./Debug/src_ax32xx_uart.c.o
                0x02009790                ax32xx_uart0IRQHandler
                0x020097e0                ax32xx_uart0IOCfg
                0x02009874                ax32xx_uart0Init
                0x020098e8                ax32xx_uart0SendByte
                0x02009928                ax32xx_uart1IRQHandler
                0x02009984                ax32xx_uart1IOCfg
                0x020099d4                ax32xx_uart1Init
                0x02009a5c                ax32xx_uart1SendByte
 .text          0x02009a8c      0x4c0 ./Debug/src_ax32xx_timer.c.o
                0x02009a8c                ax32xx_timer0IRQHandler
                0x02009ad0                ax32xx_timer1IRQHandler
                0x02009b14                ax32xx_timer2IRQHandler
                0x02009b58                ax32xx_timer3IRQHandler
                0x02009b9c                ax32xx_timerISRRegister
                0x02009be0                ax32xx_timerStart
                0x02009cdc                ax32xx_timerStop
                0x02009dac                ax32xx_timerEnable
                0x02009e38                ax32xx_timerDisable
                0x02009edc                ax32xx_timerTickStart
                0x02009f10                ax32xx_timerTickStop
                0x02009f30                ax32xx_timerTickCount
 .text          0x02009f4c      0x468 ./Debug/src_ax32xx_tminf.c.o
                0x02009f4c                ax32xx_mjpegATimeinfoEnable
                0x02009fb8                ax32xx_mjpegBTimeinfoEnable
                0x0200a024                ax32xx_mjpegATimeinfoColor
                0x0200a070                ax32xx_mjpegBTimeinfoColor
                0x0200a0cc                ax32xx_mjpegATimeinfoSize
                0x0200a128                ax32xx_mjpegBTimeinfoSize
                0x0200a1b0                ax32xx_mjpegATimeinfoPos
                0x0200a20c                ax32xx_mjpegBTimeinfoPos
                0x0200a294                ax32xx_mjpegATimeinfoAddr
                0x0200a2d8                ax32xx_mjpegBTimeinfoAddr
                0x0200a348                ax32xx_recfg_mjpb_tminf
 .text          0x0200a3b4      0x7f4 ./Debug/src_ax32xx_spi.c.o
                0x0200a3b4                ax32xx_spi0Init
                0x0200a5d4                ax32xx_spi0SendByte
                0x0200a628                ax32xx_spi0RecvByte
                0x0200a67c                ax32xx_spi0Send0
                0x0200a734                ax32xx_spi0Recv0
                0x0200a7ec                ax32xx_spi0CS0Config
                0x0200a830                spi1_pin_config
                0x0200a900                hal_spi1Init
                0x0200a978                spi1_send_byte
                0x0200a9e8                spi1_receive_byte
                0x0200aa30                spi1_recevie_dma
                0x0200aac8                spi1_send_dma
                0x0200ab64                spi1_enable
 .text          0x0200aba8      0xca4 ./Debug/src_ax32xx_rtc.c.o
                0x0200aba8                ax32xx_rtcWriteByte
                0x0200abf8                ax32xx_rtcReadByte
                0x0200ac5c                ax32xx_rtcRamRead
                0x0200acf8                ax32xx_rtcRamWrite
                0x0200ad94                ax32xx_rtcDataRead
                0x0200ae1c                ax32xx_rtcDataWrite
                0x0200aea4                ax32xx_rtcInit
                0x0200b07c                ax32xx_rtcIRQHandler
                0x0200b13c                ax32xx_rtcSencodEnable
                0x0200b1b8                ax32xx_rtcAlamEnable
                0x0200b2a0                ax32xx_rtcAlamSet
                0x0200b2e8                ax32xx_rtcGet
                0x0200b33c                ax32xx_rtcSet
                0x0200b384                ax32xx_WKOEnable
                0x0200b3e0                ax32xx_VDDGSENEnable
                0x0200b450                ax32xx_WKI0InputEnable
                0x0200b4c0                ax32xx_WKI1InputEnable
                0x0200b530                ax32xx_WKI1Read
                0x0200b554                ax32xx_WKI0Read
                0x0200b578                ax32xx_WKI1WakeupEnable
                0x0200b6e0                ax32xx_WKI1WakeupTriger
                0x0200b730                ax32xx_WKI1CleanPending
                0x0200b76c                ax32xx_rtcBatDecEnable
                0x0200b7dc                ax32xx_rtcSenHVEnable
 .text          0x0200b84c      0x118 ./Debug/src_ax32xx_md.c.o
                0x0200b84c                ax32xx_mdEnable
                0x0200b8b4                ax32xx_mdEnable_check
                0x0200b8d4                ax32xx_mdInit
                0x0200b91c                ax32xx_mdXPos
                0x0200b940                ax32xx_mdYPos
 .text          0x0200b964      0x8e0 ./Debug/src_ax32xx_iic.c.o
                0x0200ba1c                software_iic_sdaout
                0x0200ba50                software_iic_sdain
                0x0200ba84                software_iic_sda_set
                0x0200bab0                software_iic_scl_set
                0x0200badc                software_iic_sda_get
                0x0200bb04                software_iic_init
                0x0200bb34                software_iic_start
                0x0200bbac                software_iic_stop
                0x0200bc24                software_iic_wait_ack
                0x0200bcdc                ax32xx_iic0Init
                0x0200bd9c                ax32xx_iic0Uninit
                0x0200bde0                ax32xx_iic0Start
                0x0200bdfc                ax32xx_iic0Stop
                0x0200be3c                ax32xx_iic0RecvACK
                0x0200be64                ax32xx_iic0SendACK
                0x0200be88                ax32xx_iic0SendByte
                0x0200bed8                ax32xx_iic0RecvByte
                0x0200bf2c                ax32xx_iic1Init
                0x0200bfec                ax32xx_iic1Uninit
                0x0200c090                ax32xx_iic1Start
                0x0200c0ac                ax32xx_iic1Stop
                0x0200c10c                ax32xx_iic1RecvACK
                0x0200c134                ax32xx_iic1SendACK
                0x0200c158                ax32xx_iic1SendByte
                0x0200c1c8                ax32xx_iic1RecvByte
 .text          0x0200c244      0x66c ./Debug/src_ax32xx_dac.c.o
                0x0200c284                ax32xx_dacIRQHandler
                0x0200c358                ax32xx_dacSampleRateSet
                0x0200c3c8                ax32xx_dacEnable
                0x0200c44c                ax32xx_dacVolumeSet
                0x0200c4c4                ax32xx_dacBufferSet
                0x0200c4e4                ax32xx_dacBufferFlush
                0x0200c504                ax32xx_dacReset
                0x0200c528                ax32xx_dacStart
                0x0200c5a4                ax32xx_dacStop
                0x0200c5d4                ax32xx_dacISRRegister
                0x0200c5f4                ax32xx_dacHPSet
                0x0200c688                eq_coeff_init
                0x0200c6f8                eq_gain_init
                0x0200c768                ax32xx_dacInit
 .text          0x0200c8b0      0x114 ./Debug/src_ax32xx_adc.c.o
                0x0200c8b0                ax32xx_adcEnable
                0x0200c918                ax32xx_adcSetBaudrate
                0x0200c948                ax32xx_adcConverStart
                0x0200c96c                ax32xx_adcRead
 .text          0x0200c9c4      0x4d0 ./Debug/src_ax32xx_auadc.c.o
                0x0200c9c4                ax32xx_auadcIRQHandler
                0x0200ca54                ax32xx_auadcHalfIRQRegister
                0x0200ca74                ax32xx_auadcEndIRQRegister
                0x0200ca94                ax32xx_auadcEnable
                0x0200cb8c                ax32xx_auadcAGCEnable
                0x0200cc1c                ax32xx_auadcGainSet
                0x0200cc98                ax32xx_auadcBufferSet
                0x0200ccf8                ax32xx_auadcInit
                0x0200cd9c                ax32xx_auadcSetSampleSet
                0x0200ce80                agc_gain_mnt
 .text          0x0200ce94     0x13f4 ./Debug/src_ax32xx_isp.c.o
                0x0200ce94                ax32xx_ispModeSet
                0x0200ced0                isp_BLC_cfg
                0x0200cf24                isp_LSC_cfg
                0x0200cf5c                isp_DDC_cfg
                0x0200d0cc                isp_AWB_GAIN_adj
                0x0200d100                isp_whtpnt_stat_cfg
                0x0200d368                isp_CCM_cfg
                0x0200d420                isp_RGB_DGAIN_adj
                0x0200d4ac                isp_hist_stat_cfg
                0x0200d52c                isp_GAMMA_cfg
                0x0200d69c                isp_RGB_gam_cfg
                0x0200d820                isp_CH_cfg
                0x0200db7c                isp_VDE_cfg
                0x0200dc4c                isp_EE_cfg
                0x0200dec0                isp_CCF_cfg
                0x0200dff8                isp_SAJ_cfg
                0x0200e0f8                isp_kick_stat
                0x0200e128                isp_stat_en
                0x0200e16c                stat_cp_kick_st
                0x0200e190                stat_cp_done
                0x0200e1c0                isp_model_cfg
 .text          0x0200e288      0x298 ./Debug/src_jpeg_table.c.o
                0x0200e288                jpegA_table_init
                0x0200e404                ax32xx_mjpB_tab_init
 .text          0x0200e520        0x0 ./Debug/src_isp_tab.c.o
 .text          0x0200e520      0xcc0 ./Debug/src_ax32xx_usb.c.o
                0x0200e520                _usb_bulk_tx
                0x0200e65c                _usb_bulk_rx
                0x0200e768                _usb_iso_kick
                0x0200e858                _iso_wait_txdown
                0x0200e8c8                usb_iso_tx
                0x0200e9c8                usb_burst_reset
                0x0200ea14                usb_host_reset
                0x0200ea60                usb_phyreset_as_typeb
                0x0200eba4                usb_phyreset_as_typea
                0x0200ecf0                usb_insert
                0x0200ed04                usb_check_hal
                0x0200ed18                get_u32softcnt
                0x0200ed38                ax32xx_usbIRQHanlder
                0x0200ee2c                ax32xx_usbCallbackRegister
                0x0200ee68                ax32xx_usb_hostIRQHanlder
                0x0200ee7c                usb_device_check
                0x0200ef3c                ax32xx_usbPhyPllEnable
                0x0200efe4                usb11_registers_write
                0x0200eff8                usb11_registers_read
                0x0200f00c                usb_memcpy
                0x0200f020                usb_phyreset_as_typea11
                0x0200f034                usb11_host_reset
                0x0200f048                ax32xx_usb11_hostIRQHanlder
                0x0200f05c                usb20_host_check
                0x0200f124                usb11HostCheckNoWait
                0x0200f138                usb11_host_check
                0x0200f14c                usb20_phyreset_as_filter
 .text          0x0200f1e0      0x210 ./Debug/src_ax32xx_misc.c.o
                0x0200f1e0                str_seek
                0x0200f24c                dec_num2str
                0x0200f28c                char_2_hex
                0x0200f2e0                data_check
                0x0200f320                pointer_check
                0x0200f344                half_word_memcpy
                0x0200f37c                word_memcpy
                0x0200f3b4                word_reg_memcpy
 .text          0x0200f3f0        0x0 ./Debug/src_ax32xx_pip.c.o
 .text          0x0200f3f0        0x0 ./Debug/src_ax32xx_btuart.c.o
 .text          0x0200f3f0        0x0 ./Debug/src_ax32xx_crc.c.o
 .text          0x0200f3f0      0x26c ./Debug/src_ax32xx_emi.c.o
                0x0200f3f0                ax32xx_emiInit
                0x0200f52c                ax32xx_emiISRRegister
                0x0200f560                ax32xx_emiIRQHandler
                0x0200f5bc                ax32xx_emiKick
                0x0200f618                ax32xx_emiCheckBusy
                0x0200f638                ax32xx_emiCheckRXError
 .text          0x0200f65c        0x0 ./Debug/src_ax32xx_rotate.c.o
 .text          0x0200f65c        0x0 ./Debug/src_ax32xx_osdcmp.c.o
 .text          0x0200f65c        0x0 ./Debug/osd_ax32xx_osd.c.o
 .text          0x0200f65c      0xf54 ./Debug/csi_ax32xx_csi.c.o
                0x0200f65c                hal_csi_fcnt_get
                0x0200f68c                ax32xx_csiIRQHandler
                0x0200f908                ax32xx_csiISRRegiser
                0x0200f944                ax32xx_csiMJPEGFrameSet
                0x0200f9b4                ax32xx_csihv_tomjp_dma_cfg
                0x0200fa40                ax32xx_csi_only_FrameSet
                0x0200fa60                ax32xx_csiYUVFrameSet
                0x0200fa74                ax32xx_csiIOConfig
                0x0200facc                ax32xx_csiInit
                0x0200faf8                ax32xx_csiMclkSet
                0x0200fbbc                ax32xx_csiSyncSet
                0x0200fc20                ax32xx_csiPrioritySet
                0x0200fc64                ax32xx_csiTypeSet
                0x0200fcd0                ax32xx_csiModeSet
                0x0200fd0c                ax32xx_pclk_fir_Set
                0x0200fd74                ax32xx_pclk_analog_Set
                0x0200fdc4                ax32xx_pclk_inv_Set
                0x0200fe08                ax32xx_csi_clk_tun_Set
                0x0200fe50                ax32xx_csiSizeSet
                0x0200fe88                ax32xx_csiInputAddrSet
                0x0200fea0                ax32xx_csiTestModeSet
                0x0200ff08                ax32xx_csiDvpClkDivSet
                0x0200ff50                ax32xx_csiLCDFrameSet
                0x0200ff7c                ax32xx_csiLCDDmaEnable
                0x02010018                ax32xx_csiLCDDmaKick
                0x0201005c                ax32xx_csiLCDScaler
                0x02010230                ax32xx_csiScaler
                0x02010378                ax32xx_hvScaler
                0x020104bc                ax32xx_csiScalerCheck
                0x020104e4                ax32xx_csiOutputSet
                0x02010520                ax32xx_csiEnable
 .text          0x020105b0        0x0 ./Debug/lcd_ax32xx_lcd.c.o
 .text          0x020105b0     0x1904 ./Debug/mjpeg_ax32xx_mjpeg.c.o
                0x020105b0                ax32xx_mpegPrint
                0x020109e4                ax32xx_mjpB_reset
                0x02010a50                ax32xx_mjpegAIRQHandler
                0x02010aa4                ax32xx_mjpB_employ
                0x02010ad0                ax32xx_mjpB_dcdown_reg
                0x02010af0                ax32xx_mjB_as_dcode
                0x02010b1c                ax32xx_mjpegEA_ncodeISRRegister
                0x02010b3c                ax32xx_mjpegEB_ncodeISRRegister
                0x02010b5c                ax32xx_mjpegEA_ncodeISR
                0x02010b88                ax32xx_mjpegDecodeISRRegister
                0x02010ba8                ax32xx_mjpegEncodeBufferSet
                0x02010bf4                ax32xx_mjpegEncodeEnable
                0x02010cfc                ax32xx_mjpegEncodeSizeSet
                0x02010da4                ax32xx_mjpegEncodeQuilitySet
                0x02010dec                cal_jA_1s_size
                0x02010e1c                ax32xx_mjpegEncodeQadj
                0x02010ee4                ax32xx_mjpegEncodeInfoSet
                0x02010f2c                ax32xx_mjpegEncodeLoadAddrGet
                0x02010f48                ax32xx_mjpeg_inlinebuf_init
                0x02010f74                ax32xx_mjpegEncodeInit
                0x020111a4                ax32xx_mjpegDecodeScalerCal
                0x02011274                ax32xx_mjpegDecodeSetSize
                0x02011498                ax32xx_mjpegDecodeOutputSet
                0x020114b4                ax32xx_mjpegDecodeInputSet
                0x020114ec                ax32xx_mjpegDecodeDriSet
                0x02011504                ax32xx_mjpegDecodeCompressSet
                0x0201151c                ax32xx_mjpegDecodeInitTable
                0x02011560                ax32xx_mjpegDecodeInit
                0x02011764                ax32xx_mjpegDecodeDCTimeSet
                0x02011804                ax32xx_mjpegDecodeEnable
                0x02011864                ax32xx_mjpegDecodeStop
                0x020118a0                ax32xx_mjpegBIRQHandler
                0x0201199c                ax32xx_mjpegDecodeQDTCfg
                0x020119fc                ax32xx_mjpegDecodeStatus
                0x02011a30                ax32xx_mjpegDecodeCheck
                0x02011a60                ax32xx_mjpegDecodeODma1Cfg
                0x02011af4                ax32xx_mjpB_Ctl_init
                0x02011da8                ax32xx_mjpB_Linebuf_cfg
                0x02011dd4                ax32xx_mjpB_dma_cfg
                0x02011e00                ax32xx_mjpB_stop
                0x02011e68                ax32xx_mjpB_on
 .text          0x02011eb4      0x110 ./Debug/src_hal_adc.c.o
                0x02011eb4                hal_adcInit
                0x02011ef0                hal_adcRead
                0x02011f1c                hal_adcSetChannel
                0x02011f68                hal_adcGetChannel
                0x02011fa4                hal_adcVDDRTCCalculate
 .text          0x02011fc4       0xf0 ./Debug/src_hal_csi.c.o
                0x02011fc4                hal_csiMCLKSet
                0x02011fe4                hal_csiRegister
                0x02012018                hal_csiResolutionGet
                0x02012074                hal_csiAdptGet
                0x02012094                hal_csi_SeninitGet
 .text          0x020120b4      0x24c ./Debug/src_hal_dac.c.o
                0x020120fc                hal_dacInit
                0x02012154                hal_dacPlayStart
                0x02012200                hal_dacPlayStop
                0x0201222c                hal_dacSetVolume
                0x02012290                hal_dacSetBuffer
                0x020122b4                hal_dacCallBackRegister
                0x020122d8                hal_dacHPSet
 .text          0x02012300        0x0 ./Debug/src_hal_eeprom.c.o
 .text          0x02012300      0x24c ./Debug/src_hal_gpio.c.o
                0x02012300                hal_gpioInit
                0x020123a8                hal_gpioInit_io1d1
                0x02012450                hal_gpioEPullSet
                0x020124ac                hal_gpioWrite
                0x020124d4                hal_gpioRead
                0x020124f8                hal_gpioIntInit
                0x02012520                hal_gpioLedInit
 .text          0x0201254c      0xbd4 ./Debug/src_hal_iic.c.o
                0x0201254c                hal_iic0Init
                0x02012578                hal_iic0Uninit
                0x02012598                hal_iic08bitAddrWriteData
                0x02012634                hal_iic08bitAddrReadData
                0x020126ec                hal_iic08bitAddrWrite
                0x020127ac                hal_iic08bitAddrRead
                0x02012880                hal_iic016bitAddrWriteData
                0x02012928                hal_iic016bitAddrReadData
                0x020129ec                hal_iic016bitAddrWrite
                0x02012ab8                hal_iic016bitAddrRead
                0x02012b98                hal_iic1IOShare
                0x02012bc8                hal_iic1Init
                0x02012c08                hal_iic1Uninit
                0x02012c40                hal_iic18bitAddrWriteData
                0x02012cb8                hal_iic18bitAddrReadData
                0x02012d4c                hal_iic18bitAddrWrite
                0x02012de8                hal_iic18bitAddrRead
                0x02012e98                hal_iic116bitAddrWriteData
                0x02012f1c                hal_iic116bitAddrReadData
                0x02012fbc                hal_iic116bitAddrWrite
                0x02013064                hal_iic116bitAddrRead
 .text          0x02013120        0x0 ./Debug/src_hal_lcd.c.o
 .text          0x02013120      0x198 ./Debug/src_hal_md.c.o
                0x0201315c                hal_mdInit
                0x020131f0                hal_mdEnable
                0x0201323c                hal_mdCheck
                0x02013294                hal_md_reset_checktime
 .text          0x020132b8        0x0 ./Debug/src_hal_osd.c.o
 .text          0x020132b8      0xc88 ./Debug/src_hal_rtc.c.o
                0x020132e4                hal_rtcCallBackRegister
                0x02013344                hal_rtcCallBackRelease
                0x02013380                hal_rtcUninit
                0x020133bc                hal_rtcTimeGet
                0x020133d8                hal_rtcTimeGetExt
                0x0201340c                hal_rtcSecondGet
                0x0201342c                hal_rtcTime2String
                0x020136e0                hal_rtcTime2StringExt
                0x02013744                hal_rtcLeapYear
                0x02013960                hal_rtcTime
                0x02013a74                hal_rtcInit
                0x02013b9c                hal_rtcSecondSet
                0x02013bd8                hal_rtcValue
                0x02013ce8                hal_rtcTimeSet
                0x02013d88                hal_rtcAlarmSet
                0x02013e18                hal_rtcAlarmSetExt
                0x02013ebc                hal_rtcAlarmStatusGet
                0x02013ef8                hal_vddWKOEnable
                0x02013f1c                hal_vddGSENEnable
 .text          0x02013f40      0xa94 ./Debug/src_hal_sd.c.o
                0x02013fdc                hal_sdStop
                0x020141fc                hal_sdNextLBA
                0x0201421c                hal_sdInit
                0x0201467c                hal_sdUninit
                0x020146a8                hal_sdLock
                0x020146e8                hal_sdUnlock
                0x02014714                hal_sdCheck
                0x02014788                hal_sdSetCardState
                0x020147a8                hal_sdGetCardState
                0x020147c8                hal_sdGetBusWidth
                0x020147e8                hal_sdCapacity
                0x02014808                hal_sdExist
                0x02014830                hal_sdWrite
                0x020148d0                hal_speed_callback
                0x02014924                hal_sdRead
                0x020149a4                hal_sdReset
 .text          0x020149d4      0x5b4 ./Debug/src_hal_spi.c.o
                0x020149d4                hal_spiIOShare
                0x020149ec                hal_spiIOCheck
                0x02014a00                hal_spiInit
                0x02014a2c                hal_spiSendByte
                0x02014a50                hal_spiSend
                0x02014a70                hal_spiRecvByte
                0x02014a90                hal_spiRecv
                0x02014ad0                hal_spiCSConfig
                0x02014af4                hal_spiFlashReadID
                0x02014b54                hal_spiFlashWriteEnable
                0x02014b88                hal_spiFlashWait
                0x02014c0c                hal_spiFlashReadPage
                0x02014c84                hal_spiFlashRead
                0x02014d4c                hal_spiFlashWritePage
                0x02014de0                hal_spiFlashWrite
                0x02014e7c                hal_spiFlashEraseSector
                0x02014ee8                hal_spiFlashEraseBlock
                0x02014f4c                hal_spiFlashEraseChip
 .text          0x02014f88       0xd8 ./Debug/src_hal_timer.c.o
                0x02014f88                hal_timerStart
                0x02014fac                hal_timerStop
                0x02014fd0                hal_timerEnable
                0x02015008                hal_timerTickEnable
                0x02015040                hal_timerTickGet
 .text          0x02015060      0x710 ./Debug/src_hal_uart.c.o
                0x02015098                hal_uart1IRQHandler
                0x020150fc                hal_uartIOShare
                0x0201513c                hal_uartIOShareCheck
                0x02015184                hal_uartInit
                0x020151d4                hal_uart1Init
                0x0201520c                hal_uartSendData
                0x02015230                hal_uart1SendData
                0x02015254                hal_uartRXIsrRegister
                0x02015274                uart_PutChar_n
                0x020152a8                uart_PutStr
                0x020152e8                uart_Put_hex
                0x02015414                uart_Put_udec
                0x020154a8                uart_Put_dec
                0x02015550                uart_Printf
                0x02015694                uart_PrintfBuf
                0x0201572c                hal_uartPrintString
 .text          0x02015770      0x64c ./Debug/src_hal_watermark.c.o
                0x020157d8                hal_watermarkInit
                0x02015888                hal_watermarkClose
                0x02015920                hal_watermarkClear
                0x020159a0                hal_watermarkOpen
                0x02015a40                hal_watermarkColor
                0x02015a94                hal_watermarkAddr
                0x02015aac                hal_watermarkSize
                0x02015af8                hal_watermarkPosition
                0x02015b44                hal_watermarkCallbackRegister
                0x02015b8c                hal_watermarkRam
                0x02015c2c                hal_watermarkEnable
                0x02015d9c                hal_watermarkBPos_Adjust
 .text          0x02015dbc      0x3c4 ./Debug/src_hal_sys.c.o
                0x02015e04                hal_sysInit
                0x02015f20                hal_sysMemPrint
                0x02015f50                hal_sysMemMalloc
                0x02016020                hal_sysMemFree
                0x02016114                hal_sysMemRemain
 .text          0x02016180      0xe3c ./Debug/src_hal_auadc.c.o
                0x02016180                _hal_auadcCallBackEnd
                0x0201627c                _hal_auadcCallBackHalf
                0x020162d4                hal_audc_33ms_syncnt_clr
                0x02016300                hal_audc_stamp_cal
                0x0201632c                hal_audc_stamp_out
                0x02016380                hal_audc_stamp_next
                0x020163dc                hal_auadcCallBackEnd
                0x020164c8                hal_auadcInit
                0x02016520                hal_auadcMemInit
                0x020165b4                hal_auadcMemInitB
                0x02016630                hal_auadcMemUninit
                0x0201667c                hal_auadcMemUninitB
                0x020166d8                hal_auadc_cnt
                0x02016708                _hal_auadcStartForUAC
                0x020167ec                hal_auadcStartForWAV
                0x020168e8                hal_auadcStartForAVI
                0x02016a08                hal_auadcStartForAVIB
                0x02016a7c                hal_auadcBufferGet
                0x02016b58                hal_auadcBufferfree
                0x02016b84                hal_auadcBufferGetB
                0x02016c60                hal_auadcBufferfreeB
                0x02016c8c                hal_auadcStop
                0x02016cb8                hal_auadcBufferRelease
                0x02016ce0                hal_auadcBufferReleaseB
                0x02016d08                hal_auadcUACProcess
                0x02016de8                hal_adcBuffer_prefull
                0x02016e4c                hal_adcBuffer_halffull
                0x02016e64                hal_adc_volume_set
                0x02016e84                hal_adc_volume_setB
                0x02016ea4                hal_uac_send
                0x02016f08                hal_auadcStartForUAC
 .text          0x02016fbc     0x1d6c ./Debug/src_hal_mjpeg.c.o
                0x02017088                hal_mjpegStart
                0x020170b8                hal_save_frame_isr
                0x0201713c                hal_mjpeg_manual_on
                0x020172fc                hal_mjpegCallback_state
                0x02017338                hal_mjpegCallback
                0x02017540                hal_mjpeg_manual_fdown
                0x020176b4                hal_mjpeg_manual_fdown_mini
                0x02017880                hal_jA_fcnt_get
                0x020178b0                hal_mjpeg_mallocbuf
                0x020178d0                hal_mjpegSrcCSI
                0x02017a14                hal_mjpegSrcRam
                0x02017a28                hal_mjpegSrcColorBar
                0x02017ab0                hal_Cut_SDR_SrcCSI
                0x02017b84                hal_mjpegMemInit
                0x02017cd0                hal_mjpegMemUninit
                0x02017d30                hal_mjpegEncodeInit
                0x02017d90                hal_mjpegEncodeUninit
                0x02017dd4                hal_mjpegEncodeResolution
                0x02017e10                hal_mjpegEncodeResolutionImage
                0x02017e4c                hal_mjpegSizecalculate
                0x02017e7c                hal_mjpegUVCStart
                0x02018158                hal_mjpegPhotoStart
                0x02018550                hal_mjpegAVIStart
                0x020188ec                hal_mjpegRawDataGet
                0x02018904                hal_mjpegRawBuffer_prefull
                0x02018974                hal_mjpegRawBuffer_halffull
                0x020189e4                hal_mjpegRawBufferfree
                0x02018a0c                hal_mjpegRawBufferGet
                0x02018b54                hal_mjpegRawDataSet
                0x02018b7c                hal_mjpegDecodeGetResolution
                0x02018bbc                hal_mjpegDecodePicture
                0x02018bd4                hal_mjpegDecodeStatusCheck
                0x02018bf4                hal_mjpegDecodeErrorCheck
                0x02018c14                hal_mjpegDecodeMiniSize
                0x02018c2c                hal_mjpegDecodeStop
                0x02018c40                hal_mjpegDecodeReset
                0x02018c58                hal_mjpegDecodeParse
                0x02018c6c                hal_mjpegDecodeOneFrame
                0x02018c80                hal_mjpegDecodeOneFrame_Ext
                0x02018c94                hal_mjpegDecodeRestart_Ext
                0x02018ca8                hal_mjpegDecodeOneFrame_Fast
                0x02018cbc                hal_mjpegDecodeODma1Cfg
                0x02018cd0                hal_BackRecDecodeStatusCheck
                0x02018ce4                hal_curBuffer_clear
 .text          0x02018d28       0x34 ./Debug/src_hal_int.c.o
                0x02018d28                hal_intInit
 .text          0x02018d5c        0x0 ./Debug/src_hal_wdt.c.o
 .text          0x02018d5c      0x42c ./Debug/src_hal_stream.c.o
                0x02018d5c                hal_streamInit
                0x02018e54                hal_streamMalloc
                0x02018f3c                hal_streamIn_Drop
                0x02018fa0                hal_streamIn
                0x0201903c                hal_streamOut
                0x020190c8                hal_streamfree
                0x02019170                hal_stream_size
 .text          0x02019188        0x0 ./Debug/src_hal_emi.c.o
 .text          0x02019188        0x0 ./Debug/src_hal_mjpegB.c.o
 .text          0x02019188        0x0 ./Debug/src_hal_osdcmp.c.o
 .text          0x02019188        0x0 ./Debug/src_hal_rotate.c.o
 .text          0x02019188        0x0 ./Debug/src_hal_lcdframe.c.o
 .text          0x02019188     0x4358 ./Debug/isp_hal_isp.c.o
                0x02019188                isp_AWB_auto_adj
                0x020193c8                isp_isr_hal
                0x02019488                isp_stat_isr_hal
                0x020194f0                dely_ms
                0x02019524                hal_ispFrameCnt
                0x02019564                awb_manual_gain_adapt
                0x020195f8                isp_AWB_manual_adj
                0x02019644                isp_AWB_adj_cfg
                0x0201971c                isp_AE_adj_cfg
                0x0201978c                isp_LSC_adj_cfg
                0x020197f0                awb_scene_mod_set
                0x02019968                isp_contra_table_load
                0x020199f0                isp_rgbgma_table_load
                0x02019ac8                isp_gma_table_load
                0x02019ba0                isp_table_load
                0x02019bec                isp_para_config
                0x02019f78                dot_num_stat
                0x02019fcc                y_sum_stat
                0x0201a04c                find_peak
                0x0201a0fc                find_y_of_dotsum
                0x0201a18c                get_isp_adapt_val
                0x0201a1ec                get_isp_adapt_val_u8
                0x0201a244                soft_exp
                0x0201a700                hgrm_stat
                0x0201a848                isp_calculate
                0x0201a984                isp_adjust
                0x0201aef4                sensor_compensate_exp_set
                0x0201afac                isp_get_scen_light
                0x0201afcc                isp_color_on_off
                0x0201afe0                sensor_frame_rate_adapt
                0x0201b0ec                sensor_frame_rate_adapt_for_dark
                0x0201b184                isp_process
                0x0201b1e8                isp_process_check
                0x0201b258                exp_gain_separate
                0x0201b2ac                exp_br_cal
                0x0201b340                exposal_adj
                0x0201b648                isp_all_model_cfg
                0x0201b6a4                hal_ispService
                0x0201b768                hal_isp_sof_loop
                0x0201bba0                hal_commom_isr
                0x0201bce8                init_common_str
                0x0201bee8                sensor_isp_adapt
                0x0201bf8c                isp_para_init
                0x0201bfac                isp_init
                0x0201c044                hal_isp_debug_read
                0x0201c160                hal_Sensor_common_Get
                0x0201c19c                CopyToMember
                0x0201c220                hal_Sensor_common_Set
                0x0201cd2c                ygama_update
                0x0201cdb4                hal_isp_debug_write
                0x0201d264                awb_update
                0x0201d4ac                ispReadFlash
 .text          0x0201d4e0      0x584 ./Debug/dusb_hal_usb_api.c.o
                0x0201d4e0                usb_bulk_tx
                0x0201d50c                usb_bulk_rx
                0x0201d538                hal_usbdReset
                0x0201d568                usb_uvciso_kick
                0x0201d598                usb_uvciso_wait_txdown
                0x0201d5bc                usb_uaciso_kick
                0x0201d5ec                usb_uaciso_wait_txdown
                0x0201d610                uac_on
                0x0201d638                uac_off
                0x0201d658                usb_fun_reg
                0x0201d7ac                hal_usbdInit
                0x0201d7ec                hal_usbdUninit
                0x0201d81c                hal_usbdEnable
                0x0201d844                hal_usbdUVCProcess
                0x0201da10                hal_usbdProcess
                0x0201da44                hal_usbdCheck
 .text          0x0201da64      0xf94 ./Debug/dusb_hal_usb_dev_enum.c.o
                0x0201da64                usb_ep0_tx
                0x0201dae4                usbdev_stack_init
                0x0201db14                usbdev_rqu
                0x0201db3c                usbdev_reset
                0x0201db68                usb_bot_reset
                0x0201dbb4                usb_check_faddr
                0x0201dc00                usb_ep0_clrrx_pkt0
                0x0201dc3c                usb_stall_ep
                0x0201dcc8                usb_clear_ep
                0x0201dd44                usb_ep0_get_request
                0x0201dd8c                usb_ep0_transfer
                0x0201de40                usb_ep0_receive
                0x0201de98                usb_ep0_get_status
                0x0201dfa8                usb_ep0_clr_feature
                0x0201e020                usb_ep0_set_feature
                0x0201e090                usb_ep0_set_address
                0x0201e124                usb_ep0_get_configuration
                0x0201e178                usb_ep0_set_configuration
                0x0201e1f4                usb_ep0_get_interface
                0x0201e23c                uvc_ready
                0x0201e264                uac_ready
                0x0201e28c                usb_ep0_set_interface
                0x0201e3e0                usb_ep0_descriptor
                0x0201e44c                usb_ep0_get_descriptor
                0x0201e55c                usb_ep0_standard
                0x0201e5f8                usb_ep0_class_get_lun
                0x0201e63c                usb_ep0_class
                0x0201e744                usb_ep0_request
                0x0201e790                usb_ep0_hal
                0x0201e884                enum_epx_cfg
                0x0201e924                usb_dev_enum_reg
 .text          0x0201e9f8     0x1668 ./Debug/dusb_hal_usb_msc.c.o
                0x0201e9f8                msc_epx_cfg
                0x0201ea98                ScsiStallAll
                0x0201eb20                ScsiStallIn
                0x0201eb90                ScsiStallout
                0x0201ebd4                dev_online
                0x0201ec04                dev_cap
                0x0201ec30                dev_stop
                0x0201ec5c                dev_busy
                0x0201ec88                dev_free
                0x0201ecb4                mscSet_Status
                0x0201ecf0                Host_In_Data
                0x0201ed9c                mscCmd_ReadCapacity
                0x0201ee78                mscCmd_ReadFormatCapacity
                0x0201ef70                mscCmd_RequestSense
                0x0201f010                mscCmd_Inquiry
                0x0201f068                mscCmd_ModeSense6
                0x0201f0f4                mscCmd_TestUnitReady
                0x0201f180                mscCmd_StartStopUnit
                0x0201f1d0                mscCmd_PreventAllowMediumRemoval
                0x0201f210                mscCmd_Verify
                0x0201f228                cb_FIFO2mem
                0x0201f2c4                cb_mem2FIFO
                0x0201f350                cb_mem_read
                0x0201f3c8                cb_mem_write
                0x0201f448                cb_mem_rwex
                0x0201f484                mscCmd_ufmod
                0x0201f4d4                sent_csw
                0x0201f594                mscCmd_Read
                0x0201f6c4                mscCmd_Write
                0x0201f820                cbw_update
                0x0201f9b0                scsi_cmd_analysis
                0x0201fd60                get_cbw
                0x0201ff6c                rbc_rec_pkg
                0x02020000                rbc_process
 .text          0x02020060      0x3cc ./Debug/dusb_hal_usb_uac.c.o
                0x02020060                UacReceiveSetSamplingFreqCallback
                0x020200b4                uac_epx_cfg
                0x02020148                uac_unit_ctl_hal
                0x020202c0                UacHandleToStreaming
                0x02020390                uac_start
                0x020203f0                uac_stop
 .text          0x0202042c      0x878 ./Debug/dusb_hal_usb_uvc.c.o
                0x0202042c                uvc_video_probe_control_callback
                0x02020474                uvc_video_commit_control_callback
                0x020204bc                uvc_still_probe_control_callback
                0x02020504                uvc_still_commit_control_callback
                0x0202054c                uvc_unit_ctl_ex_hal
                0x0202060c                uvc_unit_ctl_hal
                0x020206cc                uvc_video_probe_control
                0x0202077c                uvc_video_commit_control
                0x0202082c                uvc_still_probe_control
                0x020208dc                uvc_still_commit_control
                0x0202098c                uvc_probe_ctl_hal
                0x02020a1c                uvc_epx_cfg
                0x02020a70                uvc_on
                0x02020ad0                uvc_off
                0x02020af4                uvc_pkg_tx
                0x02020b7c                uvc_header
                0x02020bd8                uvc_header_fill
                0x02020c84                uvc_get_tgl
 .text          0x02020ca4        0x0 ./Debug/husb_hal_usb_host_api.c.o
 .text          0x02020ca4        0x0 ./Debug/husb_hal_usb_host_enum.c.o
 .text          0x02020ca4        0x0 ./Debug/husb_hal_usb_host_tpbulk.c.o
 .text          0x02020ca4        0x0 ./Debug/husb_hal_usb_host_uvc.c.o
 .text          0x02020ca4      0x154 ./Debug/husb_hal_usensor.c.o
                0x02020ca4                usensor_actech_to_mjpBcodec
                0x02020cb8                backrec_adpt
                0x02020cd0                backrec_sensor
                0x02020ce4                backrec_sensor_stat
                0x02020cfc                usensor_actech
                0x02020d10                api_backrec_linking
                0x02020d24                api_backrec_relinking
                0x02020d38                api_backrec_status
                0x02020d50                api_astern_status
                0x02020d68                api_astern_set_status
                0x02020d7c                save_fst_reverse_mod
                0x02020d90                api_backsta_linking
                0x02020da4                usensor_detach
                0x02020db8                backrec_stop
                0x02020dcc                backrec_lowerpower
                0x02020de4                api_usensor_1S_pollmonitor
 .text          0x02020df8      0xa40 ./Debug/audio_audio_playback.c.o
                0x02020df8                audioPlaybackInit
                0x02020f20                audioPlaybackStop
                0x02020f94                audioPlaybackISR
                0x02021118                audioPlaybackUninit
                0x020211a8                audioPlaybackStart
                0x02021484                audioPlaybackPuase
                0x020214c0                audioPlaybackResume
                0x020214fc                audioPlaybackGetStatus
                0x0202151c                audioPlaybackGetTime
                0x020215f0                audioPlaybackSetVolume
                0x02021644                audioPlaybackGetVolume
                0x02021664                audioPlaybackService
 .text          0x02021838      0x528 ./Debug/audio_audio_record.c.o
                0x0202186c                audioRecordInit
                0x02021910                audioRecordUninit
                0x0202194c                audioRecordStart
                0x02021a60                audioRecordStop
                0x02021ad4                audioRecordPuase
                0x02021b04                audioRecordResume
                0x02021b34                audioRecordGetStatus
                0x02021b54                audioRecordSetStatus
                0x02021b74                audioRecordGetTime
                0x02021b9c                audioRecordError
                0x02021c04                audioRecordService
 .text          0x02021d60      0x3e4 ./Debug/audio_ring_buffer.c.o
                0x02021d60                ringBufferRead
                0x02021dec                ringBufferService
                0x02021f60                ringBufferInit
                0x02022024                ringBufferSeek
                0x020220e8                ringBufferPoint
                0x02022124                ringBufferDataSize
 .text          0x02022144        0x0 ./Debug/video_video_playback.c.o
 .text          0x02022144     0x1ad8 ./Debug/video_video_record.c.o
                0x020221d8                video_avi_write
                0x0202220c                video_avi_seek
                0x02022504                videoRecordImageWatermark
                0x020225ac                videoRecordInit
                0x02022744                videoRecordUninit
                0x020227bc                videoRecordFileStart
                0x020229b4                videoRecordFileStop
                0x02022bb8                videoRecordFileError
                0x02022c28                videoRecordStart
                0x02022e2c                videoRecordStop
                0x02022eb4                videoRecordGetTimeSec
                0x02022ef4                videoRecordError
                0x02022f7c                videoRecordRestart
                0x02022fcc                videoRecordRestart2
                0x0202301c                videoRecordPuase
                0x02023034                videoRecordResume
                0x0202304c                videoRecordGetStatus
                0x0202306c                videoRecordGetTime
                0x020230b0                videoRecordService
                0x02023938                videoRecordCmdSet
                0x02023a14                videoRecordSizePreSec
                0x02023b0c                videoRecordTakePhoto
                0x02023b50                videoRecordTakePhotoStatus
                0x02023b70                videoRecordSetPhotoStatus
                0x02023b90                pt_javgsize
                0x02023ba4                videotime_mdf
                0x02023bf4                videoRecordSetResolution
 .text          0x02023c1c        0x0 ./Debug/video_video_record_B.c.o
 .text          0x02023c1c      0x1fc ./Debug/image_image_decode.c.o
                0x02023c1c                imageDecodeInit
                0x02023c34                imageDecodeUninit
                0x02023c4c                imageDecodeStart
                0x02023df4                imageDecodeGetResolution
 .text          0x02023e18      0x518 ./Debug/image_image_encode.c.o
                0x02023e18                imageEncodeInit
                0x02023e30                imageEncodeUninit
                0x02023e48                imageEncodeGetStatus
                0x02023e68                imageEncodeSetStatus
                0x02023e88                imageEncodeStart
                0x02023fe0                GetimageEncodebuf
                0x02024154                send_1pack
                0x020241cc                send_pack
                0x02024270                send_Allpack
                0x020242d0                UartbufFree
 .text          0x02024330        0x0 ./Debug/wav_alaw.c.o
 .text          0x02024330        0x0 ./Debug/wav_imaadpcm.c.o
 .text          0x02024330      0x1e4 ./Debug/wav_pcm.c.o
                0x02024330                pcm_decode
                0x02024418                pcm_encode
 .text          0x02024514        0x0 ./Debug/wav_ulaw.c.o
 .text          0x02024514      0xc5c ./Debug/wav_wav.c.o
                0x02024568                wavEncodeInit
                0x020245e8                wavEncodeParse
                0x02024884                wavEncodeEnd
                0x02024998                wavEncodeGetBlockSize
                0x02024a10                wavEncodeOneFrame
                0x02024adc                wavEncodeAddSize
                0x02024b14                wavDecodeInit
                0x02024b5c                wavDecodeGetInfo
                0x02024b78                wavDecodeGetBlockSize
                0x02024ba8                wavDecodeGetTotalTime
                0x02024bc8                wavDecodeGetSamplerate
                0x02024be8                wavDecodeGetCurTime
                0x02024c78                wavDecodeParse
                0x0202504c                wavDecodeOneFrame
 .text          0x02025170      0x18c ./Debug/stream_stream.c.o
                0x02025170                streamSprintf
                0x020252a4                streamFont
 .text          0x020252fc      0x89c ./Debug/uartcom_uartcom.c.o
                0x020254d4                btcomCmdRsp
                0x020256b4                btcomCmdFail
                0x02025774                set_Center_Ack
                0x0202582c                set_Center
                0x020258e4                get_Center
                0x02025a08                btcomInit
                0x02025a38                btcomUninit
                0x02025a60                btcomService
 .text          0x02025b98       0x3c ./Debug/uartcom_uartCrc.c.o
                0x02025b98                uartCheckSum
 .text          0x02025bd4        0x0 ./Debug/gsensor_G_gma301.c.o
 .text          0x02025bd4        0x0 ./Debug/gsensor_gsensor.c.o
 .text          0x02025bd4        0x0 ./Debug/gsensor_G_sc7a30e.c.o
 .text          0x02025bd4        0x0 ./Debug/gsensor_g_da380.c.o
 .text          0x02025bd4      0x8b4 ./Debug/cmos_sensor_cmos_sensor.c.o
                0x02025bd4                sensor_iic_enable
                0x02025bf4                sensor_iic_disable
                0x02025c08                sensor_iic_write
                0x02025c84                sensor_iic_read
                0x02025d14                sensor_iic_info
                0x02025d58                SensorGetName
                0x02025d8c                sensorInit
                0x02026150                uart_to_iic
                0x02026358                sensor_get_w
                0x02026388                sensor_get_h
                0x020263b8                Sensor_DebugRegister
                0x02026424                usb_cut_raw
                0x02026438                Sensor_common_Get
                0x0202644c                Sensor_common_Set
                0x02026460                isp_debug_write
                0x02026474                isp_debug_read
 .text          0x02026488        0x0 ./Debug/cmos_sensor_SENSOR_BF3a03.c.o
 .text          0x02026488        0x0 ./Debug/cmos_sensor_SENSOR_BF2013.c.o
 .text          0x02026488        0x0 ./Debug/cmos_sensor_SENSOR_BF3016.c.o
 .text          0x02026488        0x0 ./Debug/cmos_sensor_SENSOR_BF3703.c.o
 .text          0x02026488        0x0 ./Debug/cmos_sensor_SENSOR_GC0307.c.o
 .text          0x02026488        0x0 ./Debug/cmos_sensor_SENSOR_GC0308.c.o
 .text          0x02026488        0x0 ./Debug/cmos_sensor_SENSOR_GC0309.c.o
 .text          0x02026488        0x0 ./Debug/cmos_sensor_SENSOR_GC0328.c.o
 .text          0x02026488        0x0 ./Debug/cmos_sensor_SENSOR_GC1004.c.o
 .text          0x02026488        0x0 ./Debug/cmos_sensor_SENSOR_H42.c.o
 .text          0x02026488        0x0 ./Debug/cmos_sensor_SENSOR_H7640.c.o
 .text          0x02026488        0x0 ./Debug/cmos_sensor_SENSOR_HM1055.c.o
 .text          0x02026488        0x0 ./Debug/cmos_sensor_SENSOR_IT03A1.c.o
 .text          0x02026488        0x0 ./Debug/cmos_sensor_SENSOR_NT99141.c.o
 .text          0x02026488        0x0 ./Debug/cmos_sensor_SENSOR_NT99142.c.o
 .text          0x02026488        0x0 ./Debug/cmos_sensor_SENSOR_OV7670.c.o
 .text          0x02026488        0x0 ./Debug/cmos_sensor_SENSOR_OV7725.c.o
 .text          0x02026488        0x0 ./Debug/cmos_sensor_SENSOR_OV9710.c.o
 .text          0x02026488        0x0 ./Debug/cmos_sensor_SENSOR_OV9732.c.o
 .text          0x02026488        0x0 ./Debug/cmos_sensor_SENSOR_SC1045.c.o
 .text          0x02026488        0x0 ./Debug/cmos_sensor_SENSOR_SIV100B.c.o
 .text          0x02026488        0x0 ./Debug/cmos_sensor_SENSOR_SIV120B.c.o
 .text          0x02026488        0x0 ./Debug/cmos_sensor_SENSOR_SIV121DS.c.o
 .text          0x02026488        0x0 ./Debug/cmos_sensor_SENSOR_SP1409.c.o
 .text          0x02026488        0x0 ./Debug/cmos_sensor_SENSOR_H62.c.o
 .text          0x02026488        0x0 ./Debug/cmos_sensor_SENSOR_GC1034.c.o
 .text          0x02026488        0x0 ./Debug/cmos_sensor_SENSOR_OV7736.c.o
 .text          0x02026488        0x0 ./Debug/cmos_sensor_SENSOR_SP140A.c.o
 .text          0x02026488        0x0 ./Debug/cmos_sensor_SENSOR_GC1054.c.o
 .text          0x02026488        0x0 ./Debug/cmos_sensor_SENSOR_GC1064.c.o
 .text          0x02026488        0x0 ./Debug/cmos_sensor_SENSOR_H65.c.o
 .text          0x02026488        0x0 ./Debug/cmos_sensor_SENSOR_SC1243.c.o
 .text          0x02026488        0x0 ./Debug/cmos_sensor_SNESOR_FPX1002.c.o
 .text          0x02026488        0x0 ./Debug/cmos_sensor_SENSOR_H63P.c.o
 .text          0x02026488        0x0 ./Debug/cmos_sensor_SENSOR_BF20A6.c.o
 .text          0x02026488        0x0 ./Debug/tft_lcd_lcd_mcu_st7789.c.o
 .text          0x02026488        0x0 ./Debug/tft_lcd_lcd_rgb_jl_lcd.c.o
 .text          0x02026488        0x0 ./Debug/tft_lcd_lcd_rgb_st7282.c.o
 .text          0x02026488        0x0 ./Debug/tft_lcd_tft_lcd.c.o
 .text          0x02026488        0x0 ./Debug/tft_lcd_lcd_mcu_5420.c.o
 .text          0x02026488        0x0 ./Debug/tft_lcd_lcd_mcu_r61509v.c.o
 .text          0x02026488        0x0 ./Debug/tft_lcd_lcd_rgb_ili8961.c.o
 .text          0x02026488        0x0 ./Debug/tft_lcd_lcd_rgb_ili9342c.c.o
 .text          0x02026488        0x0 ./Debug/tft_lcd_lcd_mcu_ili9328.c.o
 .text          0x02026488        0x0 ./Debug/tft_lcd_lcd_mcu_hx8352b.c.o
 .text          0x02026488        0x0 ./Debug/tft_lcd_lcd_mcu_st7789v.c.o
 .text          0x02026488        0x0 ./Debug/tft_lcd_lcd_mcu_hx8352c.c.o
 .text          0x02026488        0x0 ./Debug/tft_lcd_lcd_mcu_hx8357b.c.o
 .text          0x02026488        0x0 ./Debug/tft_lcd_lcd_rgb_ili9806e.c.o
 .text          0x02026488        0x0 ./Debug/tft_lcd_lcd_rgb_ota5182.c.o
 .text          0x02026488        0x0 ./Debug/tft_lcd_lcd_rgb_st7701.c.o
 .text          0x02026488        0x0 ./Debug/tft_lcd_lcd_mcu_lgdp4532.c.o
 .text          0x02026488        0x0 ./Debug/tft_lcd_lcd_mcu_9225G.c.o
 .text          0x02026488        0x0 ./Debug/usensor_237a_1.c.o
 .text          0x02026488        0x0 ./Debug/usensor_usensor.c.o
 .text          0x02026488        0x0 ./Debug/usensor_237a_2.c.o
 .text          0x02026488      0x318 ./Debug/nvfs_nvfs.c.o
                0x02026488                nv_port_read
                0x020264a8                nv_init
                0x020265cc                nv_uninit
                0x020265e4                nv_configAddr
                0x0202665c                nv_open
                0x020266f0                nv_size
                0x02026770                nv_read
 .text          0x020267a0       0xe4 ./Debug/res_ascii.c.o
                0x020267a0                ascii_draw_get
 .text          0x02026884        0x0 ./Debug/res_ascii_default.c.o
 .text          0x02026884       0xc0 ./Debug/res_ascii_default_draw.c.o
                0x02026884                ascii_default_get
 .text          0x02026944        0x0 ./Debug/res_ascii_num2.c.o
 .text          0x02026944       0xc0 ./Debug/res_ascii_num2_draw.c.o
                0x02026944                ascii_num2_get
 .text          0x02026a04        0x0 ./Debug/res_ascii_num3.c.o
 .text          0x02026a04       0xc0 ./Debug/res_ascii_num3_draw.c.o
                0x02026a04                ascii_num3_get
 .text          0x02026ac4        0x0 ./Debug/res_ascii_num4.c.o
 .text          0x02026ac4        0x0 ./Debug/res_ascii_num4_draw.c.o
 .text          0x02026ac4       0xec ./Debug/res_R.c.o
                0x02026ac4                R_loadResource
                0x02026ad8                R_getData
                0x02026aec                R_freeData
                0x02026b00                R_getSize
                0x02026b14                R_getDataAndSize
                0x02026b28                R_getTColor
                0x02026b40                R_getAsciiCharSize
                0x02026b58                R_getAsciiStringSize
                0x02026b70                R_drawAsciiChar
                0x02026b84                R_drawAsciiChar_border
                0x02026b98                R_drawAsciiString
 .text          0x02026bb0      0x60c ../bwlib\libavi.a(aviEncoder.o)
                0x02026bb0                aviEncodeInit
                0x02026ca8                aviEncodeUninit
                0x02026d54                aviEncodeParse
                0x02026de0                aviEncodeAddIdx
                0x02026e64                aviEncodeSetIdx1
                0x02026eec                aviEncodeFrameTag
                0x02026f58                aviEncodeAddOffset
                0x02026fb0                aviEncodeGetIdx1Length
                0x02026ffc                aviEncodeGetFrameCount
                0x02027048                aviEncodeEnd
                0x020270c4                aviEncodeService
                0x02027140                aviEncodeAddofs
 .text          0x020271bc      0x554 ../bwlib\libavi.a(encoder_std.o)
                0x02027204                avi_standardAddIndex
                0x020273e4                avi_standardEnd
 .text          0x02027710     0x1680 ../bwlib\libavi.a(encoder_odml.o)
                0x02028d38                avi_odmlAddoffset
 .text          0x02028d90      0x778 ../bwlib\libfs.a(fs.o)
                0x02028d90                fs_nodeinit
                0x02028de0                fs_mount
                0x02028e40                open
                0x02028f08                close
                0x02028f80                read
                0x02028ff8                write
                0x02029070                lseek
                0x020290f4                fs_readsector
                0x02029174                fs_writesector
                0x020291f4                fs_getsector
                0x0202929c                fs_getclustersize
                0x020292c0                fs_getcluster
                0x02029334                fs_size
                0x02029380                fs_size2
                0x020293cc                fs_free_size
                0x0202941c                fs_fastseek_init
                0x02029434                fs_merge
                0x0202944c                fs_bound
                0x02029464                fs_tell
                0x020294b0                fs_sync
 .text          0x02029508      0x250 ../bwlib\libfs.a(diskio.o)
                0x02029508                get_fattime
                0x02029580                fs_init
                0x020295fc                disk_status
                0x0202963c                disk_initialize
                0x02029678                disk_read
                0x020296b4                disk_write
                0x020296f0                disk_ioctl
 .text          0x02029758       0xd0 ../bwlib\libfs.a(link_ext.o)
                0x02029758                f_unlink_removeDir
                0x02029770                f_unlink_removeChain
                0x02029788                removeChainInit
                0x0202979c                put_removeChain
                0x020297b0                removeChainCheck
                0x020297c8                get_removeChain
                0x020297e0                f_unlink_ext_init
                0x020297f8                f_unlink_ext_service
                0x02029810                f_unlink_ext
 .text          0x02029828     0x77b0 ../bwlib\libfs.a(ff.o)
                0x0202b574                clst2sect
                0x0202d6f8                f_mount
                0x0202d7a8                f_open
                0x0202dc78                f_read
                0x0202df70                f_write
                0x0202e2f0                f_sync
                0x0202e570                f_close
                0x0202e5bc                f_lseek
                0x0202ea24                f_opendir
                0x0202eb54                f_closedir
                0x0202eb90                f_readdir
                0x0202ec34                f_seekdir
                0x0202ecd0                f_findnext
                0x0202ed74                f_findfirst
                0x0202edc8                f_stat
                0x0202ee50                f_getfree
                0x0202f0bc                f_truncate
                0x0202f238                f_unlink
                0x0202f3b4                f_mkdir
                0x0202f640                f_rename
                0x0202f920                f_chmod
                0x0202fa08                f_utime
                0x0202faec                f_mkfs
                0x02030f60                elm_get_vol
                0x02030fa0                FEX_getlink_clust
 .text          0x02030fd8      0x2a0 ../bwlib\libfs.a(ffunicode.o)
                0x02030fd8                ff_uni2oem
                0x020310a8                ff_oem2uni
                0x02031150                ff_wtoupper
 .text          0x02031278      0x708 ../bwlib\libsd.a(ax32xx_sd.o)
                0x02031278                ax32xx_sd0Init
                0x020313cc                ax32xx_sd0Uninit
                0x02031438                ax32xx_sd0SendCmd
                0x02031584                ax32xx_sd0BusSet
                0x020315c8                ax32xx_sd0Recv
                0x0203161c                ax32xx_sd0Send
                0x02031654                ax32xx_sd0WaitDAT0
                0x020316e4                ax32xx_sd0WaitPend
                0x02031758                ax32xx_sd0GetRsp
                0x02031774                ax32xx_sdCRCCheck
                0x020317d4                ax32xx_sd0Buffer
                0x020317f0                ax32xx_sdSetFunc
                0x020318d4                ax32xx_sd0ClkSet
 .text          0x02031980       0xb0 C:/MinGW-4.7.1/or1k-elf/lib/no-delay\libc.a(lib_a-memcmp.o)
                0x02031980                memcmp
 .text          0x02031a30      0x158 C:/MinGW-4.7.1/or1k-elf/lib/no-delay\libc.a(lib_a-memcpy.o)
                0x02031a30                memcpy
 .text          0x02031b88      0x15c C:/MinGW-4.7.1/or1k-elf/lib/no-delay\libc.a(lib_a-memset.o)
                0x02031b88                memset
 .text          0x02031ce4       0xb8 C:/MinGW-4.7.1/or1k-elf/lib/no-delay\libc.a(lib_a-strcat.o)
                0x02031ce4                strcat
 .text          0x02031d9c      0x1fc C:/MinGW-4.7.1/or1k-elf/lib/no-delay\libc.a(lib_a-strchr.o)
                0x02031d9c                strchr
 .text          0x02031f98      0x104 C:/MinGW-4.7.1/or1k-elf/lib/no-delay\libc.a(lib_a-strcmp.o)
                0x02031f98                strcmp
 .text          0x0203209c       0xc0 C:/MinGW-4.7.1/or1k-elf/lib/no-delay\libc.a(lib_a-strcpy.o)
                0x0203209c                strcpy
 .text          0x0203215c       0xe4 C:/MinGW-4.7.1/or1k-elf/lib/no-delay\libc.a(lib_a-strlen.o)
                0x0203215c                strlen
 .text          0x02032240      0x178 C:/MinGW-4.7.1/or1k-elf/lib/no-delay\libc.a(lib_a-strncmp.o)
                0x02032240                strncmp
 .text          0x020323b8      0x7d0 C:/MinGW-4.7.1/lib/gcc/or1k-elf/4.9.1/no-delay\libgcc.a(_udivdi3.o)
                0x020323b8                __udivdi3
 .text          0x02032b88       0xf4 C:/MinGW-4.7.1/lib/gcc/or1k-elf/4.9.1/no-delay\libgcc.a(__udivsi3.o)
                0x02032b88                __udivsi3
                0x02032b88                __udivsi3_internal
 .text          0x02032c7c       0x1c C:/MinGW-4.7.1/lib/gcc/or1k-elf/4.9.1/no-delay\libgcc.a(__umodsi3.o)
                0x02032c7c                __umodsi3
 .text          0x02032c98        0x0 C:/MinGW-4.7.1/lib/gcc/or1k-elf/4.9.1/no-delay\libgcc.a(_clz.o)
 *(.rodata*)
 .rodata.str1.1
                0x02032c98      0x1f0 ./Debug/main.c.o
                                0x1f2 (size before relaxing)
 .rodata.str1.1
                0x02032e88      0x198 ./Debug/resource_manager.c.o
 .rodata.cst4   0x02033020        0x4 ./Debug/resource_manager.c.o
 .rodata.str1.1
                0x02033024       0x75 ./Debug/task_audio_playback.c.o
 .rodata.str1.1
                0x02033099       0xfe ./Debug/task_audio_record.c.o
                                0x10a (size before relaxing)
 .rodata.str1.1
                0x02033197      0x22c ./Debug/task_deamon.c.o
                                0x241 (size before relaxing)
 .rodata.str1.1
                0x020333c3      0x160 ./Debug/task_image_encode.c.o
                                0x16c (size before relaxing)
 .rodata.str1.1
                0x02033523       0x1c ./Debug/task_main.c.o
 *fill*         0x0203353f        0x1 
 .rodata        0x02033540       0x24 ./Debug/task_main.c.o
 .rodata.str1.1
                0x02033564       0x4c ./Debug/task_usb.c.o
 .rodata.str1.1
                0x020335b0      0x1cc ./Debug/task_video_record.c.o
                                0x225 (size before relaxing)
 .rodata.str1.1
                0x0203377c      0x101 ./Debug/upgrade.c.o
                                0x10d (size before relaxing)
 .rodata.str1.1
                0x0203387d       0xa3 ./Debug/board.c.o
 .rodata.str1.1
                0x02033920       0x2d ./Debug/board_bwv1.c.o
 *fill*         0x0203394d        0x3 
 .rodata        0x02033950       0xb8 ./Debug/board_bwv1.c.o
                0x02033950                board_bwv1
 .rodata.str1.1
                0x02033a08       0x6c ./Debug/config.c.o
 .rodata        0x02033a74       0xa8 ./Debug/src_ax32xx_int.c.o
 .rodata        0x02033b1c       0x18 ./Debug/src_ax32xx_sys.c.o
 .rodata.str1.1
                0x02033b34       0x3f ./Debug/src_ax32xx_sys.c.o
 *fill*         0x02033b73        0x1 
 .rodata        0x02033b74       0x60 ./Debug/src_ax32xx_dma.c.o
                0x02033b74                default_cfg
 .rodata        0x02033bd4       0x4c ./Debug/src_ax32xx_gpio.c.o
 .rodata.str1.1
                0x02033c20       0x13 ./Debug/src_ax32xx_rtc.c.o
 *fill*         0x02033c33        0x1 
 .rodata        0x02033c34       0x4c ./Debug/src_ax32xx_dac.c.o
                0x02033c34                gain
                0x02033c48                eq_coeff
 .rodata        0x02033c80      0x150 ./Debug/src_ax32xx_isp.c.o
                0x02033ce4                GAOS3X3_TAB
                0x02033d08                GAOS5X5_TAB
                0x02033d6c                LOG_TAB
 .rodata        0x02033dd0      0x9c0 ./Debug/src_jpeg_table.c.o
 .rodata        0x02034790       0x30 ./Debug/src_ax32xx_usb.c.o
                0x02034790                ExRADR
                0x020347a8                ExTADR
 .rodata.str1.1
                0x020347c0      0x2f2 ./Debug/mjpeg_ax32xx_mjpeg.c.o
 *fill*         0x02034ab2        0x2 
 .rodata        0x02034ab4      0x1b4 ./Debug/mjpeg_ax32xx_mjpeg.c.o
                0x02034ac8                bicCtab
                0x02034ae8                c_table_chroma
                0x02034b28                belta_table_chroma
                0x02034b68                alpha_table_chroma
                0x02034ba8                c_table_luma
                0x02034be8                belta_table_luma
                0x02034c28                alpha_table_luma
 .rodata        0x02034c68       0x2c ./Debug/src_hal_dac.c.o
 .rodata.str1.1
                0x02034c94        0xa ./Debug/src_hal_rtc.c.o
 *fill*         0x02034c9e        0x2 
 .rodata        0x02034ca0        0xc ./Debug/src_hal_rtc.c.o
 .rodata.str1.1
                0x02034cac       0x25 ./Debug/src_hal_sd.c.o
 .rodata.str1.1
                0x02034cd1       0x8e ./Debug/src_hal_mjpeg.c.o
 *fill*         0x02034d5f        0x1 
 .rodata        0x02034d60        0xc ./Debug/src_hal_mjpeg.c.o
 *fill*         0x02034d6c       0x14 
 .rodata        0x02034d80      0x480 ./Debug/isp_hal_isp.c.o
                0x020350e0                Ratio_of_Evstep
 .rodata        0x02035200      0x4e8 ./Debug/dusb_hal_usb_dev_enum.c.o
                0x02035244                DEV_QAULIFIER_DESC_DATA
                0x02035250                UsbStrDescSerialNumber
                0x02035270                UsbStrDescProduct_0
                0x02035290                UsbStrDescProduct_1
                0x020352b0                UsbStrDescManufacturer
                0x020352c0                UsbLanguageID
                0x020352c4                TYPE_COMB_CONFIG
                0x020354b4                uvc_cfg
                0x0203568c                msc_cfg
                0x020356ac                TYPE_COMB_DEVICE
                0x020356c0                uvc_dev
                0x020356d4                msc_dev
 .rodata.str1.1
                0x020356e8       0x19 ./Debug/dusb_hal_usb_msc.c.o
 *fill*         0x02035701        0x3 
 .rodata        0x02035704       0x30 ./Debug/dusb_hal_usb_msc.c.o
                0x02035704                MscSenseCode
                0x02035710                device_inquiry_data
 .rodata        0x02035734        0x8 ./Debug/dusb_hal_usb_uac.c.o
                0x02035734                UacVolCtrlSettings_def
 .rodata        0x0203573c      0xcbc ./Debug/dusb_hal_usb_uvc.c.o
                0x0203573c                probe
                0x02035764                pu_rqu_ex
                0x02035908                pu_rqu
 .rodata.str1.1
                0x020363f8      0x159 ./Debug/audio_audio_playback.c.o
 .rodata.str1.1
                0x02036551       0x6b ./Debug/audio_audio_record.c.o
 .rodata.str1.1
                0x020365bc      0x3f0 ./Debug/video_video_record.c.o
 .rodata        0x020369ac       0x48 ./Debug/video_video_record.c.o
                0x020369ac                picB_size
                0x020369c4                pic_size
 .rodata.str1.1
                0x020369f4       0xa0 ./Debug/image_image_encode.c.o
 .rodata.str1.1
                0x02036a94       0x46 ./Debug/wav_wav.c.o
 *fill*         0x02036ada        0x2 
 .rodata        0x02036adc      0x144 ./Debug/wav_wav.c.o
 .rodata.str1.1
                0x02036c20       0x45 ./Debug/uartcom_uartcom.c.o
                                 0x56 (size before relaxing)
 .rodata.str1.1
                0x02036c65       0x4e ./Debug/cmos_sensor_cmos_sensor.c.o
 *fill*         0x02036cb3        0xd 
 .rodata        0x02036cc0      0xce0 ./Debug/cmos_sensor_cmos_sensor.c.o
                0x02036cc0                null_init
                0x02036d20                test_img
 .rodata.str1.1
                0x020379a0       0x6a ./Debug/nvfs_nvfs.c.o
 *fill*         0x02037a0a        0x2 
 .rodata        0x02037a0c      0xd38 ./Debug/res_ascii_default.c.o
                0x02037a0c                ascii_default_126
                0x02037a30                ascii_default_125
                0x02037a54                ascii_default_124
                0x02037a78                ascii_default_123
                0x02037a9c                ascii_default_122
                0x02037ac0                ascii_default_121
                0x02037ae4                ascii_default_120
                0x02037b08                ascii_default_119
                0x02037b2c                ascii_default_118
                0x02037b50                ascii_default_117
                0x02037b74                ascii_default_116
                0x02037b98                ascii_default_115
                0x02037bbc                ascii_default_114
                0x02037be0                ascii_default_113
                0x02037c04                ascii_default_112
                0x02037c28                ascii_default_111
                0x02037c4c                ascii_default_110
                0x02037c70                ascii_default_109
                0x02037c94                ascii_default_108
                0x02037cb8                ascii_default_107
                0x02037cdc                ascii_default_106
                0x02037d00                ascii_default_105
                0x02037d24                ascii_default_104
                0x02037d48                ascii_default_103
                0x02037d6c                ascii_default_102
                0x02037d90                ascii_default_101
                0x02037db4                ascii_default_100
                0x02037dd8                ascii_default_99
                0x02037dfc                ascii_default_98
                0x02037e20                ascii_default_97
                0x02037e44                ascii_default_96
                0x02037e68                ascii_default_95
                0x02037e8c                ascii_default_94
                0x02037eb0                ascii_default_93
                0x02037ed4                ascii_default_92
                0x02037ef8                ascii_default_91
                0x02037f1c                ascii_default_90
                0x02037f40                ascii_default_89
                0x02037f64                ascii_default_88
                0x02037f88                ascii_default_87
                0x02037fac                ascii_default_86
                0x02037fd0                ascii_default_85
                0x02037ff4                ascii_default_84
                0x02038018                ascii_default_83
                0x0203803c                ascii_default_82
                0x02038060                ascii_default_81
                0x02038084                ascii_default_80
                0x020380a8                ascii_default_79
                0x020380cc                ascii_default_78
                0x020380f0                ascii_default_77
                0x02038114                ascii_default_76
                0x02038138                ascii_default_75
                0x0203815c                ascii_default_74
                0x02038180                ascii_default_73
                0x020381a4                ascii_default_72
                0x020381c8                ascii_default_71
                0x020381ec                ascii_default_70
                0x02038210                ascii_default_69
                0x02038234                ascii_default_68
                0x02038258                ascii_default_67
                0x0203827c                ascii_default_66
                0x020382a0                ascii_default_65
                0x020382c4                ascii_default_64
                0x020382e8                ascii_default_63
                0x0203830c                ascii_default_62
                0x02038330                ascii_default_61
                0x02038354                ascii_default_60
                0x02038378                ascii_default_59
                0x0203839c                ascii_default_58
                0x020383c0                ascii_default_57
                0x020383e4                ascii_default_56
                0x02038408                ascii_default_55
                0x0203842c                ascii_default_54
                0x02038450                ascii_default_53
                0x02038474                ascii_default_52
                0x02038498                ascii_default_51
                0x020384bc                ascii_default_50
                0x020384e0                ascii_default_49
                0x02038504                ascii_default_48
                0x02038528                ascii_default_47
                0x0203854c                ascii_default_46
                0x02038570                ascii_default_45
                0x02038594                ascii_default_44
                0x020385b8                ascii_default_43
                0x020385dc                ascii_default_42
                0x02038600                ascii_default_41
                0x02038624                ascii_default_40
                0x02038648                ascii_default_39
                0x0203866c                ascii_default_38
                0x02038690                ascii_default_37
                0x020386b4                ascii_default_36
                0x020386d8                ascii_default_35
                0x020386fc                ascii_default_33
                0x02038720                ascii_default_32
 .rodata        0x02038744     0x18f8 ./Debug/res_ascii_num2.c.o
                0x02038744                ascii_num2_126
                0x02038788                ascii_num2_125
                0x020387cc                ascii_num2_124
                0x02038810                ascii_num2_123
                0x02038854                ascii_num2_122
                0x02038898                ascii_num2_121
                0x020388dc                ascii_num2_120
                0x02038920                ascii_num2_119
                0x02038964                ascii_num2_118
                0x020389a8                ascii_num2_117
                0x020389ec                ascii_num2_116
                0x02038a30                ascii_num2_115
                0x02038a74                ascii_num2_114
                0x02038ab8                ascii_num2_113
                0x02038afc                ascii_num2_112
                0x02038b40                ascii_num2_111
                0x02038b84                ascii_num2_110
                0x02038bc8                ascii_num2_109
                0x02038c0c                ascii_num2_108
                0x02038c50                ascii_num2_107
                0x02038c94                ascii_num2_106
                0x02038cd8                ascii_num2_105
                0x02038d1c                ascii_num2_104
                0x02038d60                ascii_num2_103
                0x02038da4                ascii_num2_102
                0x02038de8                ascii_num2_101
                0x02038e2c                ascii_num2_100
                0x02038e70                ascii_num2_99
                0x02038eb4                ascii_num2_98
                0x02038ef8                ascii_num2_97
                0x02038f3c                ascii_num2_96
                0x02038f80                ascii_num2_95
                0x02038fc4                ascii_num2_94
                0x02039008                ascii_num2_93
                0x0203904c                ascii_num2_92
                0x02039090                ascii_num2_91
                0x020390d4                ascii_num2_90
                0x02039118                ascii_num2_89
                0x0203915c                ascii_num2_88
                0x020391a0                ascii_num2_87
                0x020391e4                ascii_num2_86
                0x02039228                ascii_num2_85
                0x0203926c                ascii_num2_84
                0x020392b0                ascii_num2_83
                0x020392f4                ascii_num2_82
                0x02039338                ascii_num2_81
                0x0203937c                ascii_num2_80
                0x020393c0                ascii_num2_79
                0x02039404                ascii_num2_78
                0x02039448                ascii_num2_77
                0x0203948c                ascii_num2_76
                0x020394d0                ascii_num2_75
                0x02039514                ascii_num2_74
                0x02039558                ascii_num2_73
                0x0203959c                ascii_num2_72
                0x020395e0                ascii_num2_71
                0x02039624                ascii_num2_70
                0x02039668                ascii_num2_69
                0x020396ac                ascii_num2_68
                0x020396f0                ascii_num2_67
                0x02039734                ascii_num2_66
                0x02039778                ascii_num2_65
                0x020397bc                ascii_num2_64
                0x02039800                ascii_num2_63
                0x02039844                ascii_num2_62
                0x02039888                ascii_num2_61
                0x020398cc                ascii_num2_60
                0x02039910                ascii_num2_59
                0x02039954                ascii_num2_58
                0x02039998                ascii_num2_57
                0x020399dc                ascii_num2_56
                0x02039a20                ascii_num2_55
                0x02039a64                ascii_num2_54
                0x02039aa8                ascii_num2_53
                0x02039aec                ascii_num2_52
                0x02039b30                ascii_num2_51
                0x02039b74                ascii_num2_50
                0x02039bb8                ascii_num2_49
                0x02039bfc                ascii_num2_48
                0x02039c40                ascii_num2_47
                0x02039c84                ascii_num2_46
                0x02039cc8                ascii_num2_45
                0x02039d0c                ascii_num2_44
                0x02039d50                ascii_num2_43
                0x02039d94                ascii_num2_42
                0x02039dd8                ascii_num2_41
                0x02039e1c                ascii_num2_40
                0x02039e60                ascii_num2_39
                0x02039ea4                ascii_num2_38
                0x02039ee8                ascii_num2_37
                0x02039f2c                ascii_num2_36
                0x02039f70                ascii_num2_35
                0x02039fb4                ascii_num2_33
                0x02039ff8                ascii_num2_32
 .rodata        0x0203a03c     0x52b8 ./Debug/res_ascii_num3.c.o
                0x0203a03c                ascii_num3_126
                0x0203a140                ascii_num3_125
                0x0203a1c4                ascii_num3_124
                0x0203a248                ascii_num3_123
                0x0203a2cc                ascii_num3_122
                0x0203a390                ascii_num3_121
                0x0203a454                ascii_num3_120
                0x0203a518                ascii_num3_119
                0x0203a61c                ascii_num3_118
                0x0203a6e0                ascii_num3_117
                0x0203a7e4                ascii_num3_116
                0x0203a868                ascii_num3_115
                0x0203a92c                ascii_num3_114
                0x0203a9b0                ascii_num3_113
                0x0203aab4                ascii_num3_112
                0x0203abb8                ascii_num3_111
                0x0203acbc                ascii_num3_110
                0x0203adc0                ascii_num3_109
                0x0203af04                ascii_num3_108
                0x0203af88                ascii_num3_107
                0x0203b04c                ascii_num3_106
                0x0203b0d0                ascii_num3_105
                0x0203b154                ascii_num3_104
                0x0203b258                ascii_num3_103
                0x0203b35c                ascii_num3_102
                0x0203b3e0                ascii_num3_101
                0x0203b4e4                ascii_num3_100
                0x0203b5e8                ascii_num3_99
                0x0203b6ac                ascii_num3_98
                0x0203b7b0                ascii_num3_97
                0x0203b8b4                ascii_num3_96
                0x0203b938                ascii_num3_95
                0x0203b9fc                ascii_num3_94
                0x0203bac0                ascii_num3_93
                0x0203bb44                ascii_num3_92
                0x0203bbc8                ascii_num3_91
                0x0203bc4c                ascii_num3_90
                0x0203bd50                ascii_num3_89
                0x0203be54                ascii_num3_88
                0x0203bf58                ascii_num3_87
                0x0203c0dc                ascii_num3_86
                0x0203c1e0                ascii_num3_85
                0x0203c2e4                ascii_num3_84
                0x0203c3e8                ascii_num3_83
                0x0203c4ec                ascii_num3_82
                0x0203c5f0                ascii_num3_81
                0x0203c734                ascii_num3_80
                0x0203c838                ascii_num3_79
                0x0203c97c                ascii_num3_78
                0x0203ca80                ascii_num3_77
                0x0203cbc4                ascii_num3_76
                0x0203ccc8                ascii_num3_75
                0x0203cdcc                ascii_num3_74
                0x0203ce90                ascii_num3_73
                0x0203cf14                ascii_num3_72
                0x0203d018                ascii_num3_71
                0x0203d15c                ascii_num3_70
                0x0203d260                ascii_num3_69
                0x0203d364                ascii_num3_68
                0x0203d468                ascii_num3_67
                0x0203d56c                ascii_num3_66
                0x0203d670                ascii_num3_65
                0x0203d774                ascii_num3_64
                0x0203d8f8                ascii_num3_63
                0x0203d9fc                ascii_num3_62
                0x0203db00                ascii_num3_61
                0x0203dc04                ascii_num3_60
                0x0203dd08                ascii_num3_59
                0x0203dd8c                ascii_num3_58
                0x0203de10                ascii_num3_57
                0x0203df14                ascii_num3_56
                0x0203e018                ascii_num3_55
                0x0203e11c                ascii_num3_54
                0x0203e220                ascii_num3_53
                0x0203e324                ascii_num3_52
                0x0203e428                ascii_num3_51
                0x0203e52c                ascii_num3_50
                0x0203e630                ascii_num3_49
                0x0203e734                ascii_num3_48
                0x0203e838                ascii_num3_47
                0x0203e8bc                ascii_num3_46
                0x0203e940                ascii_num3_45
                0x0203e9c4                ascii_num3_44
                0x0203ea48                ascii_num3_43
                0x0203eb4c                ascii_num3_42
                0x0203ec10                ascii_num3_41
                0x0203ec94                ascii_num3_40
                0x0203ed18                ascii_num3_39
                0x0203ed9c                ascii_num3_38
                0x0203eea0                ascii_num3_37
                0x0203efe4                ascii_num3_36
                0x0203f0e8                ascii_num3_35
                0x0203f1ec                ascii_num3_33
                0x0203f270                ascii_num3_32
 .rodata.str1.1
                0x0203f2f4       0x90 ../bwlib\libavi.a(encoder_odml.o)
 .rodata.str1.1
                0x00000000       0x90 ../bwlib\libfs.a(fs.o)
                                  0x1 (size before relaxing)
 .rodata.str1.1
                0x0203f384       0x50 ../bwlib\libfs.a(ff.o)
                                 0x59 (size before relaxing)
 .rodata.cst4   0x0203f3d4        0x4 ../bwlib\libfs.a(ff.o)
 .rodata        0x0203f3d8       0x40 ../bwlib\libfs.a(ff.o)
 .rodata        0x0203f418     0xe9c4 ../bwlib\libfs.a(ffunicode.o)
 .rodata        0x0204dddc      0x100 C:/MinGW-4.7.1/lib/gcc/or1k-elf/4.9.1/no-delay\libgcc.a(_clz.o)
                0x0204dddc                __clz_tab
 *(.data*)
 .data          0x0204dedc        0x0 ./Debug/ax32xx_reset.S.o
 .data          0x0204dedc        0x0 ./Debug/ax32xx_spi_boot_cfg.S.o
 .data          0x0204dedc        0x0 ./Debug/ax32xx_BLDRX32.S.o
 .data          0x0204dedc        0x2 ./Debug/main.c.o
 .data          0x0204dede        0x0 ./Debug/resource_manager.c.o
 .data          0x0204dede        0x0 ./Debug/task_audio_playback.c.o
 .data          0x0204dede        0x0 ./Debug/task_audio_record.c.o
 .data          0x0204dede        0x0 ./Debug/task_deamon.c.o
 .data          0x0204dede        0x1 ./Debug/task_image_encode.c.o
                0x0204dede                send_pack_cnt
 .data          0x0204dedf        0x0 ./Debug/task_main.c.o
 .data          0x0204dedf        0x0 ./Debug/task_usb.c.o
 .data          0x0204dedf        0x0 ./Debug/task_video_playback.c.o
 .data          0x0204dedf        0x0 ./Debug/task_video_record.c.o
 .data          0x0204dedf        0x0 ./Debug/upgrade.c.o
 *fill*         0x0204dedf        0x1 
 .data          0x0204dee0        0x8 ./Debug/board.c.o
 .data          0x0204dee8        0x1 ./Debug/board_bwv1.c.o
 .data          0x0204dee9        0x0 ./Debug/config.c.o
 .data          0x0204dee9        0x0 ./Debug/explorer.c.o
 *fill*         0x0204dee9        0x3 
 .data          0x0204deec       0x48 ./Debug/filelist.c.o
                0x0204deec                filelist
 .data          0x0204df34        0x0 ./Debug/task_usb_host.c.o
 .data          0x0204df34        0x0 ./Debug/xos_x_cpu.c.o
 .data          0x0204df34        0x0 ./Debug/xos_xmbox.c.o
 .data          0x0204df34        0x0 ./Debug/xos_xmsgq.c.o
 .data          0x0204df34        0x0 ./Debug/xos_xos.c.o
 .data          0x0204df34        0x0 ./Debug/xos_xwork.c.o
 .data          0x0204df34        0x0 ./Debug/multimedia_user_media.c.o
 .data          0x0204df34        0x0 ./Debug/src_ax32xx_int.c.o
 .data          0x0204df34        0x0 ./Debug/src_ax32xx_sys.c.o
 .data          0x0204df34        0x0 ./Debug/src_ax32xx_dma.c.o
 .data          0x0204df34        0x0 ./Debug/src_ax32xx_wdt.c.o
 .data          0x0204df34        0x0 ./Debug/src_ax32xx_gpio.c.o
 .data          0x0204df34        0x0 ./Debug/src_ax32xx_uart.c.o
 .data          0x0204df34        0x0 ./Debug/src_ax32xx_timer.c.o
 .data          0x0204df34        0x0 ./Debug/src_ax32xx_tminf.c.o
 .data          0x0204df34        0x0 ./Debug/src_ax32xx_spi.c.o
 .data          0x0204df34        0x0 ./Debug/src_ax32xx_rtc.c.o
 .data          0x0204df34        0x0 ./Debug/src_ax32xx_md.c.o
 .data          0x0204df34        0x0 ./Debug/src_ax32xx_iic.c.o
 .data          0x0204df34        0x0 ./Debug/src_ax32xx_dac.c.o
 .data          0x0204df34        0x0 ./Debug/src_ax32xx_adc.c.o
 .data          0x0204df34        0x0 ./Debug/src_ax32xx_auadc.c.o
 .data          0x0204df34        0x0 ./Debug/src_ax32xx_isp.c.o
 .data          0x0204df34        0x0 ./Debug/src_jpeg_table.c.o
 .data          0x0204df34       0x24 ./Debug/src_isp_tab.c.o
                0x0204df34                color_cpr_step
                0x0204df48                ylogstep
 .data          0x0204df58        0x0 ./Debug/src_ax32xx_usb.c.o
 .data          0x0204df58        0x0 ./Debug/src_ax32xx_misc.c.o
 .data          0x0204df58        0x0 ./Debug/src_ax32xx_pip.c.o
 .data          0x0204df58        0x0 ./Debug/src_ax32xx_btuart.c.o
 .data          0x0204df58        0x0 ./Debug/src_ax32xx_crc.c.o
 .data          0x0204df58        0x0 ./Debug/src_ax32xx_emi.c.o
 .data          0x0204df58        0x0 ./Debug/src_ax32xx_rotate.c.o
 .data          0x0204df58        0x0 ./Debug/src_ax32xx_osdcmp.c.o
 .data          0x0204df58        0x0 ./Debug/osd_ax32xx_osd.c.o
 .data          0x0204df58        0x0 ./Debug/csi_ax32xx_csi.c.o
 .data          0x0204df58        0x0 ./Debug/lcd_ax32xx_lcd.c.o
 .data          0x0204df58        0x0 ./Debug/mjpeg_ax32xx_mjpeg.c.o
 .data          0x0204df58        0x0 ./Debug/src_hal_adc.c.o
 .data          0x0204df58        0x0 ./Debug/src_hal_csi.c.o
 .data          0x0204df58        0x0 ./Debug/src_hal_dac.c.o
 .data          0x0204df58        0x0 ./Debug/src_hal_eeprom.c.o
 .data          0x0204df58        0x0 ./Debug/src_hal_gpio.c.o
 .data          0x0204df58        0x0 ./Debug/src_hal_iic.c.o
 .data          0x0204df58        0x0 ./Debug/src_hal_lcd.c.o
 .data          0x0204df58        0x0 ./Debug/src_hal_md.c.o
 .data          0x0204df58        0x0 ./Debug/src_hal_osd.c.o
 .data          0x0204df58        0x0 ./Debug/src_hal_rtc.c.o
 .data          0x0204df58        0x0 ./Debug/src_hal_sd.c.o
 .data          0x0204df58        0x0 ./Debug/src_hal_spi.c.o
 .data          0x0204df58        0x0 ./Debug/src_hal_timer.c.o
 .data          0x0204df58        0x0 ./Debug/src_hal_uart.c.o
 .data          0x0204df58       0x3c ./Debug/src_hal_watermark.c.o
 .data          0x0204df94        0x0 ./Debug/src_hal_sys.c.o
 .data          0x0204df94        0x0 ./Debug/src_hal_auadc.c.o
 .data          0x0204df94        0x0 ./Debug/src_hal_mjpeg.c.o
 .data          0x0204df94        0x0 ./Debug/src_hal_int.c.o
 .data          0x0204df94        0x0 ./Debug/src_hal_wdt.c.o
 .data          0x0204df94        0x0 ./Debug/src_hal_stream.c.o
 .data          0x0204df94        0x0 ./Debug/src_hal_emi.c.o
 .data          0x0204df94        0x0 ./Debug/src_hal_mjpegB.c.o
 .data          0x0204df94        0x0 ./Debug/src_hal_osdcmp.c.o
 .data          0x0204df94        0x0 ./Debug/src_hal_rotate.c.o
 .data          0x0204df94        0x0 ./Debug/src_hal_lcdframe.c.o
 .data          0x0204df94        0x2 ./Debug/isp_hal_isp.c.o
 .data          0x0204df96        0x0 ./Debug/dusb_hal_usb_api.c.o
 .data          0x0204df96        0x0 ./Debug/dusb_hal_usb_dev_enum.c.o
 .data          0x0204df96        0x0 ./Debug/dusb_hal_usb_msc.c.o
 .data          0x0204df96        0x0 ./Debug/dusb_hal_usb_uac.c.o
 *fill*         0x0204df96        0x2 
 .data          0x0204df98       0x28 ./Debug/dusb_hal_usb_uvc.c.o
                0x0204df98                UVC_Still_Probe_Commit
                0x0204dfa4                uvc_video_probe_commit_value
 .data          0x0204dfc0        0x0 ./Debug/husb_hal_usb_host_api.c.o
 .data          0x0204dfc0        0x0 ./Debug/husb_hal_usb_host_enum.c.o
 .data          0x0204dfc0        0x0 ./Debug/husb_hal_usb_host_tpbulk.c.o
 .data          0x0204dfc0        0x0 ./Debug/husb_hal_usb_host_uvc.c.o
 .data          0x0204dfc0        0x0 ./Debug/husb_hal_usensor.c.o
 .data          0x0204dfc0        0x0 ./Debug/audio_audio_playback.c.o
 .data          0x0204dfc0        0x0 ./Debug/audio_audio_record.c.o
 .data          0x0204dfc0        0x0 ./Debug/audio_ring_buffer.c.o
 .data          0x0204dfc0        0x0 ./Debug/video_video_playback.c.o
 .data          0x0204dfc0        0x0 ./Debug/video_video_record.c.o
 .data          0x0204dfc0        0x0 ./Debug/video_video_record_B.c.o
 .data          0x0204dfc0        0x0 ./Debug/image_image_decode.c.o
 .data          0x0204dfc0        0x0 ./Debug/image_image_encode.c.o
 .data          0x0204dfc0        0x0 ./Debug/wav_alaw.c.o
 .data          0x0204dfc0        0x0 ./Debug/wav_imaadpcm.c.o
 .data          0x0204dfc0        0x0 ./Debug/wav_pcm.c.o
 .data          0x0204dfc0        0x0 ./Debug/wav_ulaw.c.o
 .data          0x0204dfc0        0x0 ./Debug/wav_wav.c.o
 .data          0x0204dfc0        0x0 ./Debug/stream_stream.c.o
 .data          0x0204dfc0        0x0 ./Debug/uartcom_uartcom.c.o
 .data          0x0204dfc0        0x0 ./Debug/uartcom_uartCrc.c.o
 .data          0x0204dfc0        0x0 ./Debug/gsensor_G_gma301.c.o
 .data          0x0204dfc0        0x0 ./Debug/gsensor_gsensor.c.o
 .data          0x0204dfc0        0x0 ./Debug/gsensor_G_sc7a30e.c.o
 .data          0x0204dfc0        0x0 ./Debug/gsensor_g_da380.c.o
 .data          0x0204dfc0        0x0 ./Debug/cmos_sensor_cmos_sensor.c.o
 .data          0x0204dfc0        0x0 ./Debug/cmos_sensor_SENSOR_BF3a03.c.o
 .data          0x0204dfc0        0x0 ./Debug/cmos_sensor_SENSOR_BF2013.c.o
 .data          0x0204dfc0        0x0 ./Debug/cmos_sensor_SENSOR_BF3016.c.o
 .data          0x0204dfc0        0x0 ./Debug/cmos_sensor_SENSOR_BF3703.c.o
 .data          0x0204dfc0        0x0 ./Debug/cmos_sensor_SENSOR_GC0307.c.o
 .data          0x0204dfc0        0x0 ./Debug/cmos_sensor_SENSOR_GC0308.c.o
 .data          0x0204dfc0        0x0 ./Debug/cmos_sensor_SENSOR_GC0309.c.o
 .data          0x0204dfc0        0x0 ./Debug/cmos_sensor_SENSOR_GC0328.c.o
 .data          0x0204dfc0        0x0 ./Debug/cmos_sensor_SENSOR_GC1004.c.o
 .data          0x0204dfc0        0x0 ./Debug/cmos_sensor_SENSOR_H42.c.o
 .data          0x0204dfc0        0x0 ./Debug/cmos_sensor_SENSOR_H7640.c.o
 .data          0x0204dfc0        0x0 ./Debug/cmos_sensor_SENSOR_HM1055.c.o
 .data          0x0204dfc0        0x0 ./Debug/cmos_sensor_SENSOR_IT03A1.c.o
 .data          0x0204dfc0        0x0 ./Debug/cmos_sensor_SENSOR_NT99141.c.o
 .data          0x0204dfc0        0x0 ./Debug/cmos_sensor_SENSOR_NT99142.c.o
 .data          0x0204dfc0        0x0 ./Debug/cmos_sensor_SENSOR_OV7670.c.o
 .data          0x0204dfc0        0x0 ./Debug/cmos_sensor_SENSOR_OV7725.c.o
 .data          0x0204dfc0        0x0 ./Debug/cmos_sensor_SENSOR_OV9710.c.o
 .data          0x0204dfc0        0x0 ./Debug/cmos_sensor_SENSOR_OV9732.c.o
 .data          0x0204dfc0        0x0 ./Debug/cmos_sensor_SENSOR_SC1045.c.o
 .data          0x0204dfc0        0x0 ./Debug/cmos_sensor_SENSOR_SIV100B.c.o
 .data          0x0204dfc0        0x0 ./Debug/cmos_sensor_SENSOR_SIV120B.c.o
 .data          0x0204dfc0        0x0 ./Debug/cmos_sensor_SENSOR_SIV121DS.c.o
 .data          0x0204dfc0        0x0 ./Debug/cmos_sensor_SENSOR_SP1409.c.o
 .data          0x0204dfc0        0x0 ./Debug/cmos_sensor_SENSOR_H62.c.o
 .data          0x0204dfc0        0x0 ./Debug/cmos_sensor_SENSOR_GC1034.c.o
 .data          0x0204dfc0        0x0 ./Debug/cmos_sensor_SENSOR_OV7736.c.o
 .data          0x0204dfc0        0x0 ./Debug/cmos_sensor_SENSOR_SP140A.c.o
 .data          0x0204dfc0        0x0 ./Debug/cmos_sensor_SENSOR_GC1054.c.o
 .data          0x0204dfc0        0x0 ./Debug/cmos_sensor_SENSOR_GC1064.c.o
 .data          0x0204dfc0        0x0 ./Debug/cmos_sensor_SENSOR_H65.c.o
 .data          0x0204dfc0        0x0 ./Debug/cmos_sensor_SENSOR_SC1243.c.o
 .data          0x0204dfc0        0x0 ./Debug/cmos_sensor_SNESOR_FPX1002.c.o
 .data          0x0204dfc0        0x0 ./Debug/cmos_sensor_SENSOR_H63P.c.o
 .data          0x0204dfc0        0x0 ./Debug/cmos_sensor_SENSOR_BF20A6.c.o
 .data          0x0204dfc0        0x0 ./Debug/tft_lcd_lcd_mcu_st7789.c.o
 .data          0x0204dfc0        0x0 ./Debug/tft_lcd_lcd_rgb_jl_lcd.c.o
 .data          0x0204dfc0        0x0 ./Debug/tft_lcd_lcd_rgb_st7282.c.o
 .data          0x0204dfc0        0x0 ./Debug/tft_lcd_tft_lcd.c.o
 .data          0x0204dfc0        0x0 ./Debug/tft_lcd_lcd_mcu_5420.c.o
 .data          0x0204dfc0        0x0 ./Debug/tft_lcd_lcd_mcu_r61509v.c.o
 .data          0x0204dfc0        0x0 ./Debug/tft_lcd_lcd_rgb_ili8961.c.o
 .data          0x0204dfc0        0x0 ./Debug/tft_lcd_lcd_rgb_ili9342c.c.o
 .data          0x0204dfc0        0x0 ./Debug/tft_lcd_lcd_mcu_ili9328.c.o
 .data          0x0204dfc0        0x0 ./Debug/tft_lcd_lcd_mcu_hx8352b.c.o
 .data          0x0204dfc0        0x0 ./Debug/tft_lcd_lcd_mcu_st7789v.c.o
 .data          0x0204dfc0        0x0 ./Debug/tft_lcd_lcd_mcu_hx8352c.c.o
 .data          0x0204dfc0        0x0 ./Debug/tft_lcd_lcd_mcu_hx8357b.c.o
 .data          0x0204dfc0        0x0 ./Debug/tft_lcd_lcd_rgb_ili9806e.c.o
 .data          0x0204dfc0        0x0 ./Debug/tft_lcd_lcd_rgb_ota5182.c.o
 .data          0x0204dfc0        0x0 ./Debug/tft_lcd_lcd_rgb_st7701.c.o
 .data          0x0204dfc0        0x0 ./Debug/tft_lcd_lcd_mcu_lgdp4532.c.o
 .data          0x0204dfc0        0x0 ./Debug/tft_lcd_lcd_mcu_9225G.c.o
 .data          0x0204dfc0        0x0 ./Debug/usensor_237a_1.c.o
 .data          0x0204dfc0        0x0 ./Debug/usensor_usensor.c.o
 .data          0x0204dfc0        0x0 ./Debug/usensor_237a_2.c.o
 .data          0x0204dfc0        0x0 ./Debug/nvfs_nvfs.c.o
 .data          0x0204dfc0        0x0 ./Debug/res_ascii.c.o
 .data          0x0204dfc0        0x0 ./Debug/res_ascii_default.c.o
 .data          0x0204dfc0      0x178 ./Debug/res_ascii_default_draw.c.o
                0x0204dfc0                ascii_default_table
 .data          0x0204e138        0x0 ./Debug/res_ascii_num2.c.o
 .data          0x0204e138      0x178 ./Debug/res_ascii_num2_draw.c.o
                0x0204e138                ascii_num2_table
 .data          0x0204e2b0        0x0 ./Debug/res_ascii_num3.c.o
 .data          0x0204e2b0      0x178 ./Debug/res_ascii_num3_draw.c.o
                0x0204e2b0                ascii_num3_table
 .data          0x0204e428        0x0 ./Debug/res_ascii_num4.c.o
 .data          0x0204e428        0x0 ./Debug/res_ascii_num4_draw.c.o
 .data          0x0204e428        0x0 ./Debug/res_R.c.o
 .data          0x0204e428        0x0 ../bwlib\libavi.a(aviEncoder.o)
 .data          0x0204e428       0x18 ../bwlib\libavi.a(encoder_std.o)
                0x0204e428                avi_encoder_std
 .data          0x0204e440       0x18 ../bwlib\libavi.a(encoder_odml.o)
                0x0204e440                avi_encoder_odml
 .data          0x0204e458        0x0 ../bwlib\libfs.a(fs.o)
 .data          0x0204e458        0x0 ../bwlib\libfs.a(diskio.o)
 .data          0x0204e458        0x0 ../bwlib\libfs.a(link_ext.o)
 .data          0x0204e458        0x0 ../bwlib\libfs.a(ff.o)
 .data          0x0204e458        0x0 ../bwlib\libfs.a(ffunicode.o)
 .data          0x0204e458        0x0 ../bwlib\libsd.a(ax32xx_sd.o)
 .data          0x0204e458        0x0 C:/MinGW-4.7.1/or1k-elf/lib/no-delay\libc.a(lib_a-memcmp.o)
 .data          0x0204e458        0x0 C:/MinGW-4.7.1/or1k-elf/lib/no-delay\libc.a(lib_a-memcpy.o)
 .data          0x0204e458        0x0 C:/MinGW-4.7.1/or1k-elf/lib/no-delay\libc.a(lib_a-memset.o)
 .data          0x0204e458        0x0 C:/MinGW-4.7.1/or1k-elf/lib/no-delay\libc.a(lib_a-strcat.o)
 .data          0x0204e458        0x0 C:/MinGW-4.7.1/or1k-elf/lib/no-delay\libc.a(lib_a-strchr.o)
 .data          0x0204e458        0x0 C:/MinGW-4.7.1/or1k-elf/lib/no-delay\libc.a(lib_a-strcmp.o)
 .data          0x0204e458        0x0 C:/MinGW-4.7.1/or1k-elf/lib/no-delay\libc.a(lib_a-strcpy.o)
 .data          0x0204e458        0x0 C:/MinGW-4.7.1/or1k-elf/lib/no-delay\libc.a(lib_a-strlen.o)
 .data          0x0204e458        0x0 C:/MinGW-4.7.1/or1k-elf/lib/no-delay\libc.a(lib_a-strncmp.o)
 .data          0x0204e458        0x0 C:/MinGW-4.7.1/lib/gcc/or1k-elf/4.9.1/no-delay\libgcc.a(_udivdi3.o)
 .data          0x0204e458        0x0 C:/MinGW-4.7.1/lib/gcc/or1k-elf/4.9.1/no-delay\libgcc.a(__udivsi3.o)
 .data          0x0204e458        0x0 C:/MinGW-4.7.1/lib/gcc/or1k-elf/4.9.1/no-delay\libgcc.a(__umodsi3.o)
 .data          0x0204e458        0x0 C:/MinGW-4.7.1/lib/gcc/or1k-elf/4.9.1/no-delay\libgcc.a(_clz.o)
                0x0204e458                _text_end = .

.bss            0x0204e458    0x18c64 load address 0x00050c58
                0x0204e458                __bss_start = .
 *(.bss*)
 .bss           0x0204e458        0x0 ./Debug/ax32xx_reset.S.o
 .bss           0x0204e458        0x0 ./Debug/ax32xx_spi_boot_cfg.S.o
 .bss           0x0204e458        0x0 ./Debug/ax32xx_BLDRX32.S.o
 .bss           0x0204e458       0x28 ./Debug/main.c.o
 .bss           0x0204e480       0x88 ./Debug/resource_manager.c.o
 .bss           0x0204e508        0x0 ./Debug/task_audio_playback.c.o
 .bss           0x0204e508        0x4 ./Debug/task_audio_record.c.o
 .bss           0x0204e50c       0x10 ./Debug/task_deamon.c.o
 .bss           0x0204e51c        0x8 ./Debug/task_image_encode.c.o
                0x0204e51c                cut_sdr_data_addr
                0x0204e520                cut_sdr_data_en
 .bss           0x0204e524        0x4 ./Debug/task_main.c.o
 .bss           0x0204e528        0x0 ./Debug/task_usb.c.o
 .bss           0x0204e528        0x0 ./Debug/task_video_playback.c.o
 .bss           0x0204e528        0xc ./Debug/task_video_record.c.o
 .bss           0x0204e534        0x0 ./Debug/upgrade.c.o
 .bss           0x0204e534        0x0 ./Debug/board.c.o
 .bss           0x0204e534       0x14 ./Debug/board_bwv1.c.o
 *fill*         0x0204e548       0x18 
 .bss           0x0204e560      0x220 ./Debug/config.c.o
 .bss           0x0204e780        0x0 ./Debug/explorer.c.o
 .bss           0x0204e780     0x7d88 ./Debug/filelist.c.o
 .bss           0x02056508        0x0 ./Debug/task_usb_host.c.o
 .bss           0x02056508        0x0 ./Debug/xos_x_cpu.c.o
 .bss           0x02056508       0x40 ./Debug/xos_xmbox.c.o
 .bss           0x02056548        0x0 ./Debug/xos_xmsgq.c.o
 .bss           0x02056548        0x8 ./Debug/xos_xos.c.o
 .bss           0x02056550       0x80 ./Debug/xos_xwork.c.o
 .bss           0x020565d0        0x0 ./Debug/multimedia_user_media.c.o
 .bss           0x020565d0        0x0 ./Debug/src_ax32xx_int.c.o
 .bss           0x020565d0        0x0 ./Debug/src_ax32xx_sys.c.o
 .bss           0x020565d0        0x1 ./Debug/src_ax32xx_dma.c.o
 .bss           0x020565d1        0x0 ./Debug/src_ax32xx_wdt.c.o
 *fill*         0x020565d1        0x3 
 .bss           0x020565d4       0x6c ./Debug/src_ax32xx_gpio.c.o
 .bss           0x02056640        0x8 ./Debug/src_ax32xx_uart.c.o
 .bss           0x02056648        0x0 ./Debug/src_ax32xx_timer.c.o
 .bss           0x02056648       0x28 ./Debug/src_ax32xx_tminf.c.o
 .bss           0x02056670        0x0 ./Debug/src_ax32xx_spi.c.o
 .bss           0x02056670        0x0 ./Debug/src_ax32xx_rtc.c.o
 .bss           0x02056670        0x0 ./Debug/src_ax32xx_md.c.o
 .bss           0x02056670        0x0 ./Debug/src_ax32xx_iic.c.o
 .bss           0x02056670        0x4 ./Debug/src_ax32xx_dac.c.o
 .bss           0x02056674        0x0 ./Debug/src_ax32xx_adc.c.o
 .bss           0x02056674        0x8 ./Debug/src_ax32xx_auadc.c.o
 .bss           0x0205667c        0x0 ./Debug/src_ax32xx_isp.c.o
 .bss           0x0205667c        0x1 ./Debug/src_jpeg_table.c.o
 .bss           0x0205667d        0x0 ./Debug/src_isp_tab.c.o
 *fill*         0x0205667d        0x3 
 .bss           0x02056680        0xc ./Debug/src_ax32xx_usb.c.o
 .bss           0x0205668c        0x0 ./Debug/src_ax32xx_misc.c.o
 .bss           0x0205668c        0x0 ./Debug/src_ax32xx_pip.c.o
 .bss           0x0205668c        0x0 ./Debug/src_ax32xx_btuart.c.o
 .bss           0x0205668c        0x0 ./Debug/src_ax32xx_crc.c.o
 .bss           0x0205668c        0x4 ./Debug/src_ax32xx_emi.c.o
 .bss           0x02056690        0x0 ./Debug/src_ax32xx_rotate.c.o
 .bss           0x02056690        0x0 ./Debug/src_ax32xx_osdcmp.c.o
 .bss           0x02056690        0x0 ./Debug/osd_ax32xx_osd.c.o
 .bss           0x02056690       0x34 ./Debug/csi_ax32xx_csi.c.o
 .bss           0x020566c4        0x0 ./Debug/lcd_ax32xx_lcd.c.o
 .bss           0x020566c4       0x30 ./Debug/mjpeg_ax32xx_mjpeg.c.o
 .bss           0x020566f4        0x0 ./Debug/src_hal_adc.c.o
 .bss           0x020566f4        0x0 ./Debug/src_hal_csi.c.o
 .bss           0x020566f4        0x8 ./Debug/src_hal_dac.c.o
 .bss           0x020566fc        0x0 ./Debug/src_hal_eeprom.c.o
 .bss           0x020566fc        0x0 ./Debug/src_hal_gpio.c.o
 .bss           0x020566fc        0x2 ./Debug/src_hal_iic.c.o
 .bss           0x020566fe        0x0 ./Debug/src_hal_lcd.c.o
 *fill*         0x020566fe        0x2 
 .bss           0x02056700        0x8 ./Debug/src_hal_md.c.o
 .bss           0x02056708        0x0 ./Debug/src_hal_osd.c.o
 .bss           0x02056708       0x34 ./Debug/src_hal_rtc.c.o
 .bss           0x0205673c       0x10 ./Debug/src_hal_sd.c.o
 .bss           0x0205674c        0x0 ./Debug/src_hal_spi.c.o
 .bss           0x0205674c        0x0 ./Debug/src_hal_timer.c.o
 .bss           0x0205674c        0x8 ./Debug/src_hal_uart.c.o
 .bss           0x02056754       0x10 ./Debug/src_hal_watermark.c.o
 .bss           0x02056764      0x214 ./Debug/src_hal_sys.c.o
 .bss           0x02056978      0x330 ./Debug/src_hal_auadc.c.o
                0x02056978                auadccnt
 .bss           0x02056ca8     0x1c68 ./Debug/src_hal_mjpeg.c.o
                0x02056ca8                ispmode_tmp
 .bss           0x02058910        0x0 ./Debug/src_hal_int.c.o
 .bss           0x02058910        0x0 ./Debug/src_hal_wdt.c.o
 .bss           0x02058910        0x0 ./Debug/src_hal_stream.c.o
 .bss           0x02058910        0x0 ./Debug/src_hal_emi.c.o
 .bss           0x02058910        0x0 ./Debug/src_hal_mjpegB.c.o
 .bss           0x02058910        0x0 ./Debug/src_hal_osdcmp.c.o
 .bss           0x02058910        0x0 ./Debug/src_hal_rotate.c.o
 .bss           0x02058910        0x0 ./Debug/src_hal_lcdframe.c.o
 .bss           0x02058910       0xc8 ./Debug/isp_hal_isp.c.o
 .bss           0x020589d8        0x8 ./Debug/dusb_hal_usb_api.c.o
 .bss           0x020589e0       0x10 ./Debug/dusb_hal_usb_dev_enum.c.o
 .bss           0x020589f0        0x0 ./Debug/dusb_hal_usb_msc.c.o
 .bss           0x020589f0        0x0 ./Debug/dusb_hal_usb_uac.c.o
 .bss           0x020589f0        0x1 ./Debug/dusb_hal_usb_uvc.c.o
 .bss           0x020589f1        0x0 ./Debug/husb_hal_usb_host_api.c.o
 .bss           0x020589f1        0x0 ./Debug/husb_hal_usb_host_enum.c.o
 .bss           0x020589f1        0x0 ./Debug/husb_hal_usb_host_tpbulk.c.o
 .bss           0x020589f1        0x0 ./Debug/husb_hal_usb_host_uvc.c.o
 .bss           0x020589f1        0x0 ./Debug/husb_hal_usensor.c.o
 *fill*         0x020589f1        0x3 
 .bss           0x020589f4       0x30 ./Debug/audio_audio_playback.c.o
 .bss           0x02058a24       0x24 ./Debug/audio_audio_record.c.o
 .bss           0x02058a48       0x28 ./Debug/audio_ring_buffer.c.o
 .bss           0x02058a70        0x0 ./Debug/video_video_playback.c.o
 .bss           0x02058a70        0x4 ./Debug/video_video_record.c.o
 .bss           0x02058a74        0x0 ./Debug/video_video_record_B.c.o
 .bss           0x02058a74        0x0 ./Debug/image_image_decode.c.o
 .bss           0x02058a74        0x0 ./Debug/image_image_encode.c.o
 .bss           0x02058a74        0x0 ./Debug/wav_alaw.c.o
 .bss           0x02058a74        0x0 ./Debug/wav_imaadpcm.c.o
 .bss           0x02058a74        0x0 ./Debug/wav_pcm.c.o
 .bss           0x02058a74        0x0 ./Debug/wav_ulaw.c.o
 .bss           0x02058a74       0xcc ./Debug/wav_wav.c.o
 .bss           0x02058b40        0x0 ./Debug/stream_stream.c.o
 .bss           0x02058b40       0x20 ./Debug/uartcom_uartcom.c.o
 .bss           0x02058b60        0x0 ./Debug/uartcom_uartCrc.c.o
 .bss           0x02058b60        0x0 ./Debug/gsensor_G_gma301.c.o
 .bss           0x02058b60        0x0 ./Debug/gsensor_gsensor.c.o
 .bss           0x02058b60        0x0 ./Debug/gsensor_G_sc7a30e.c.o
 .bss           0x02058b60        0x0 ./Debug/gsensor_g_da380.c.o
 .bss           0x02058b60     0x1040 ./Debug/cmos_sensor_cmos_sensor.c.o
                0x02058b60                cmos_sensor_id
                0x02058b64                devSensorInit
 .bss           0x02059ba0        0x0 ./Debug/cmos_sensor_SENSOR_BF3a03.c.o
 .bss           0x02059ba0        0x0 ./Debug/cmos_sensor_SENSOR_BF2013.c.o
 .bss           0x02059ba0        0x0 ./Debug/cmos_sensor_SENSOR_BF3016.c.o
 .bss           0x02059ba0        0x0 ./Debug/cmos_sensor_SENSOR_BF3703.c.o
 .bss           0x02059ba0        0x0 ./Debug/cmos_sensor_SENSOR_GC0307.c.o
 .bss           0x02059ba0        0x0 ./Debug/cmos_sensor_SENSOR_GC0308.c.o
 .bss           0x02059ba0        0x0 ./Debug/cmos_sensor_SENSOR_GC0309.c.o
 .bss           0x02059ba0        0x0 ./Debug/cmos_sensor_SENSOR_GC0328.c.o
 .bss           0x02059ba0        0x0 ./Debug/cmos_sensor_SENSOR_GC1004.c.o
 .bss           0x02059ba0        0x0 ./Debug/cmos_sensor_SENSOR_H42.c.o
 .bss           0x02059ba0        0x0 ./Debug/cmos_sensor_SENSOR_H7640.c.o
 .bss           0x02059ba0        0x0 ./Debug/cmos_sensor_SENSOR_HM1055.c.o
 .bss           0x02059ba0        0x0 ./Debug/cmos_sensor_SENSOR_IT03A1.c.o
 .bss           0x02059ba0        0x0 ./Debug/cmos_sensor_SENSOR_NT99141.c.o
 .bss           0x02059ba0        0x0 ./Debug/cmos_sensor_SENSOR_NT99142.c.o
 .bss           0x02059ba0        0x0 ./Debug/cmos_sensor_SENSOR_OV7670.c.o
 .bss           0x02059ba0        0x0 ./Debug/cmos_sensor_SENSOR_OV7725.c.o
 .bss           0x02059ba0        0x0 ./Debug/cmos_sensor_SENSOR_OV9710.c.o
 .bss           0x02059ba0        0x0 ./Debug/cmos_sensor_SENSOR_OV9732.c.o
 .bss           0x02059ba0        0x0 ./Debug/cmos_sensor_SENSOR_SC1045.c.o
 .bss           0x02059ba0        0x0 ./Debug/cmos_sensor_SENSOR_SIV100B.c.o
 .bss           0x02059ba0        0x0 ./Debug/cmos_sensor_SENSOR_SIV120B.c.o
 .bss           0x02059ba0        0x0 ./Debug/cmos_sensor_SENSOR_SIV121DS.c.o
 .bss           0x02059ba0        0x0 ./Debug/cmos_sensor_SENSOR_SP1409.c.o
 .bss           0x02059ba0        0x0 ./Debug/cmos_sensor_SENSOR_H62.c.o
 .bss           0x02059ba0        0x0 ./Debug/cmos_sensor_SENSOR_GC1034.c.o
 .bss           0x02059ba0        0x0 ./Debug/cmos_sensor_SENSOR_OV7736.c.o
 .bss           0x02059ba0        0x0 ./Debug/cmos_sensor_SENSOR_SP140A.c.o
 .bss           0x02059ba0        0x0 ./Debug/cmos_sensor_SENSOR_GC1054.c.o
 .bss           0x02059ba0        0x0 ./Debug/cmos_sensor_SENSOR_GC1064.c.o
 .bss           0x02059ba0        0x0 ./Debug/cmos_sensor_SENSOR_H65.c.o
 .bss           0x02059ba0        0x0 ./Debug/cmos_sensor_SENSOR_SC1243.c.o
 .bss           0x02059ba0        0x0 ./Debug/cmos_sensor_SNESOR_FPX1002.c.o
 .bss           0x02059ba0        0x0 ./Debug/cmos_sensor_SENSOR_H63P.c.o
 .bss           0x02059ba0        0x0 ./Debug/cmos_sensor_SENSOR_BF20A6.c.o
 .bss           0x02059ba0        0x0 ./Debug/tft_lcd_lcd_mcu_st7789.c.o
 .bss           0x02059ba0        0x0 ./Debug/tft_lcd_lcd_rgb_jl_lcd.c.o
 .bss           0x02059ba0        0x0 ./Debug/tft_lcd_lcd_rgb_st7282.c.o
 .bss           0x02059ba0        0x0 ./Debug/tft_lcd_tft_lcd.c.o
 .bss           0x02059ba0        0x0 ./Debug/tft_lcd_lcd_mcu_5420.c.o
 .bss           0x02059ba0        0x0 ./Debug/tft_lcd_lcd_mcu_r61509v.c.o
 .bss           0x02059ba0        0x0 ./Debug/tft_lcd_lcd_rgb_ili8961.c.o
 .bss           0x02059ba0        0x0 ./Debug/tft_lcd_lcd_rgb_ili9342c.c.o
 .bss           0x02059ba0        0x0 ./Debug/tft_lcd_lcd_mcu_ili9328.c.o
 .bss           0x02059ba0        0x0 ./Debug/tft_lcd_lcd_mcu_hx8352b.c.o
 .bss           0x02059ba0        0x0 ./Debug/tft_lcd_lcd_mcu_st7789v.c.o
 .bss           0x02059ba0        0x0 ./Debug/tft_lcd_lcd_mcu_hx8352c.c.o
 .bss           0x02059ba0        0x0 ./Debug/tft_lcd_lcd_mcu_hx8357b.c.o
 .bss           0x02059ba0        0x0 ./Debug/tft_lcd_lcd_rgb_ili9806e.c.o
 .bss           0x02059ba0        0x0 ./Debug/tft_lcd_lcd_rgb_ota5182.c.o
 .bss           0x02059ba0        0x0 ./Debug/tft_lcd_lcd_rgb_st7701.c.o
 .bss           0x02059ba0        0x0 ./Debug/tft_lcd_lcd_mcu_lgdp4532.c.o
 .bss           0x02059ba0        0x0 ./Debug/tft_lcd_lcd_mcu_9225G.c.o
 .bss           0x02059ba0        0x0 ./Debug/usensor_237a_1.c.o
 .bss           0x02059ba0        0x0 ./Debug/usensor_usensor.c.o
 .bss           0x02059ba0        0x0 ./Debug/usensor_237a_2.c.o
 .bss           0x02059ba0       0x18 ./Debug/nvfs_nvfs.c.o
 .bss           0x02059bb8        0x0 ./Debug/res_ascii.c.o
 .bss           0x02059bb8        0x0 ./Debug/res_ascii_default.c.o
 .bss           0x02059bb8        0x0 ./Debug/res_ascii_default_draw.c.o
 .bss           0x02059bb8        0x0 ./Debug/res_ascii_num2.c.o
 .bss           0x02059bb8        0x0 ./Debug/res_ascii_num2_draw.c.o
 .bss           0x02059bb8        0x0 ./Debug/res_ascii_num3.c.o
 .bss           0x02059bb8        0x0 ./Debug/res_ascii_num3_draw.c.o
 .bss           0x02059bb8        0x0 ./Debug/res_ascii_num4.c.o
 .bss           0x02059bb8        0x0 ./Debug/res_ascii_num4_draw.c.o
 .bss           0x02059bb8        0x0 ./Debug/res_R.c.o
 .bss           0x02059bb8       0x68 ../bwlib\libavi.a(aviEncoder.o)
 .bss           0x02059c20        0x0 ../bwlib\libavi.a(encoder_std.o)
 .bss           0x02059c20        0x0 ../bwlib\libavi.a(encoder_odml.o)
 .bss           0x02059c20      0x920 ../bwlib\libfs.a(fs.o)
 .bss           0x0205a540        0x0 ../bwlib\libfs.a(diskio.o)
 .bss           0x0205a540        0x0 ../bwlib\libfs.a(link_ext.o)
 .bss           0x0205a540      0x46c ../bwlib\libfs.a(ff.o)
 .bss           0x0205a9ac        0x0 ../bwlib\libfs.a(ffunicode.o)
 .bss           0x0205a9ac        0x0 ../bwlib\libsd.a(ax32xx_sd.o)
 .bss           0x0205a9ac        0x0 C:/MinGW-4.7.1/or1k-elf/lib/no-delay\libc.a(lib_a-memcmp.o)
 .bss           0x0205a9ac        0x0 C:/MinGW-4.7.1/or1k-elf/lib/no-delay\libc.a(lib_a-memcpy.o)
 .bss           0x0205a9ac        0x0 C:/MinGW-4.7.1/or1k-elf/lib/no-delay\libc.a(lib_a-memset.o)
 .bss           0x0205a9ac        0x0 C:/MinGW-4.7.1/or1k-elf/lib/no-delay\libc.a(lib_a-strcat.o)
 .bss           0x0205a9ac        0x0 C:/MinGW-4.7.1/or1k-elf/lib/no-delay\libc.a(lib_a-strchr.o)
 .bss           0x0205a9ac        0x0 C:/MinGW-4.7.1/or1k-elf/lib/no-delay\libc.a(lib_a-strcmp.o)
 .bss           0x0205a9ac        0x0 C:/MinGW-4.7.1/or1k-elf/lib/no-delay\libc.a(lib_a-strcpy.o)
 .bss           0x0205a9ac        0x0 C:/MinGW-4.7.1/or1k-elf/lib/no-delay\libc.a(lib_a-strlen.o)
 .bss           0x0205a9ac        0x0 C:/MinGW-4.7.1/or1k-elf/lib/no-delay\libc.a(lib_a-strncmp.o)
 .bss           0x0205a9ac        0x0 C:/MinGW-4.7.1/lib/gcc/or1k-elf/4.9.1/no-delay\libgcc.a(_udivdi3.o)
 .bss           0x0205a9ac        0x0 C:/MinGW-4.7.1/lib/gcc/or1k-elf/4.9.1/no-delay\libgcc.a(__udivsi3.o)
 .bss           0x0205a9ac        0x0 C:/MinGW-4.7.1/lib/gcc/or1k-elf/4.9.1/no-delay\libgcc.a(__umodsi3.o)
 .bss           0x0205a9ac        0x0 C:/MinGW-4.7.1/lib/gcc/or1k-elf/4.9.1/no-delay\libgcc.a(_clz.o)
 *(COMMON)
 COMMON         0x0205a9ac     0x81c4 ./Debug/main.c.o
                0x0205a9ac                fp11_epout_isr_hal
                0x0205a9b0                usb_varm
                0x0205a9cc                WAV_TYPE_E
                0x0205a9d0                SysCtrl
                0x0205aa34                fp_epout_isr_hal
                0x0205aa38                mediaVideoCtrlB
                0x0205aacc                audiobuff
                0x02062acc                fp_uac_unit_ctl_hal
                0x02062ad0                fp_UacHandleToStreaming
                0x02062ad4                EP0WaitForSetReqData
                0x02062ad8                mediaVideoCtrl
                0x02062b6c                CHANNEL_EXCHANGE_E
 COMMON         0x02062b70       0x38 ./Debug/task_video_record.c.o
                0x02062b70                tempFileName2
                0x02062b8c                tempFileName1
 COMMON         0x02062ba8        0x1 ./Debug/xos_xos.c.o
                0x02062ba8                XOSNesting
 *fill*         0x02062ba9        0x3 
 COMMON         0x02062bac       0x74 ./Debug/multimedia_user_media.c.o
                0x02062bac                jpegCache
                0x02062bb0                audsIStack
                0x02062bbc                jpegBStack
                0x02062bc4                audioCache
                0x02062bc8                aviIdx1CacheB
                0x02062bcc                audsTStack
                0x02062bd8                vidsBStack
                0x02062bec                jpegIStack
                0x02062bf4                audsBStack
                0x02062c00                thumbnailUVBuffer
                0x02062c04                aviIdx1Cache
                0x02062c08                thumbnailYBuffer
                0x02062c0c                vidsIStack
 COMMON         0x02062c20        0x8 ./Debug/src_ax32xx_int.c.o
                0x02062c20                fp_usb_isr
                0x02062c24                fp_usb11_isr
 COMMON         0x02062c28        0x1 ./Debug/src_ax32xx_sys.c.o
                0x02062c28                smph_dmacopy
 *fill*         0x02062c29        0x3 
 COMMON         0x02062c2c        0x4 ./Debug/src_ax32xx_wdt.c.o
                0x02062c2c                wdt_en
 COMMON         0x02062c30       0x10 ./Debug/src_ax32xx_timer.c.o
                0x02062c30                timerISR
 COMMON         0x02062c40        0x8 ./Debug/src_ax32xx_rtc.c.o
                0x02062c40                rtcSecondISR
                0x02062c44                rtcAlamISR
 *fill*         0x02062c48       0x18 
 COMMON         0x02062c60     0x1378 ./Debug/src_ax32xx_isp.c.o
                0x02062c60                ispstat
                0x02063520                isp
                0x02063560                using_contrast
                0x02063660                lsc_tab
                0x02063ad8                RGB_GMMA
                0x02063dd8                Y_GMA
 COMMON         0x02063fd8       0x20 ./Debug/src_ax32xx_usb.c.o
                0x02063fd8                fp11_host_connect_hal
                0x02063fdc                sofcnt
                0x02063fe0                fp_host_remove_hal
                0x02063fe4                fp11_host_remove_hal
                0x02063fe8                mscbusy
                0x02063fec                fp_host11_remove_hal
                0x02063ff0                fp_host11_connect_hal
                0x02063ff4                fp_host_connect_hal
 COMMON         0x02063ff8        0x4 ./Debug/csi_ax32xx_csi.c.o
                0x02063ff8                csifcnt
 COMMON         0x02063ffc       0x68 ./Debug/mjpeg_ax32xx_mjpeg.c.o
                0x02063ffc                fp_jpegdc_ldone_hal
                0x02064000                block_scaler_tab
                0x02064060                javgsize
 COMMON         0x02064064       0x14 ./Debug/src_hal_csi.c.o
                0x02064064                snser
 COMMON         0x02064078        0x4 ./Debug/src_hal_sd.c.o
                0x02064078                speed
 COMMON         0x0206407c     0x2004 ./Debug/src_hal_auadc.c.o
                0x0206407c                pcm_buf
                0x02064080                auadcbuff
 COMMON         0x02066080       0x10 ./Debug/isp_hal_isp.c.o
                0x02066080                fp_stat_isr
                0x02066084                fp_ae_isr
                0x02066088                fp_sensor_exposure
                0x0206608c                fp_awb_isr
 COMMON         0x02066090       0x3d ./Debug/dusb_hal_usb_dev_enum.c.o
                0x02066090                fp_uvc_off_hal
                0x02066094                fp_uvc_on_hal
                0x02066098                uac_onflg
                0x0206609a                usb_rqu
                0x020660a4                fp_uac_on_hal
                0x020660a8                usb_dev
                0x020660c4                pSetReqCallback
                0x020660c8                fp_uac_off_hal
                0x020660cc                uvc_onflg
 *fill*         0x020660cd        0x3 
 COMMON         0x020660d0       0x80 ./Debug/dusb_hal_usb_msc.c.o
                0x020660d0                scsi
                0x020660e8                fp_disk_rd
                0x020660ec                fp_disk_cap
                0x020660f0                fp_disk_online
                0x020660f4                fp_usb_bulk_tx
                0x020660f8                fp_disk_stop
                0x020660fc                fp_usb_bulk_rx
                0x02066100                fp_disk_busy
                0x02066104                fp_disk_free
                0x02066108                fp_disk_wr
                0x0206610c                MscCmd
 COMMON         0x02066150       0x10 ./Debug/dusb_hal_usb_uac.c.o
                0x02066150                UacSampFreq
                0x02066153                uaconflg
                0x02066154                UacMuteControl
                0x02066158                UacVolCtrlSettings
 COMMON         0x02066160       0x18 ./Debug/dusb_hal_usb_uvc.c.o
                0x02066160                ptgl
                0x02066164                fp_usb_ep0_tx
                0x02066168                fp_uvc_probe_ctl_hal
                0x0206616c                fp_uvc_unit_ctl_ex_hal
                0x02066170                fp_usb_iso_tx
                0x02066174                fp_uvc_unit_ctl_hal
 COMMON         0x02066178       0x10 ./Debug/image_image_encode.c.o
                0x02066178                uart_buff_len
                0x0206617c                pack_len
                0x02066180                uart_buff
                0x02066184                pack_total
                0x02066185                pack_total_len
                0x02066186                image_enc_stat
 *fill*         0x02066188       0x18 
 COMMON         0x020661a0      0xcc8 ./Debug/cmos_sensor_cmos_sensor.c.o
                0x020661a0                devSensor_Cmd
                0x02066e20                devSensor_Ident
 COMMON         0x02066e68       0x18 ../bwlib\libfs.a(diskio.o)
                0x02066e68                fp_tmnow
                0x02066e6c                fp_storage_wr
                0x02066e70                fp_f_write
                0x02066e74                fp_storage_sta
                0x02066e78                fp_storage_rd
                0x02066e7c                fp_storage_init
 *(.buff.clmt)
 *(.big_buffer*)
 *(._urx_buf_)
 ._urx_buf_     0x02066e80      0x23c ../bwlib\libfs.a(fs.o)
                0x02066e80                work_fatfs
                0x020670c0                _sdram_remian_addr = (ALIGN (0x40) + 0x0)

.before_load    0x00002000        0x0 load address 0x00050e00
                0x00002000                _before_load_vma = .
 *(.before_load.entry)
 *(.before_load)

.lcd_resource   0x00000000      0x24c load address 0x00050e00
 *(.lcd_res.header)
                0x00000000                _res_lcd_struct_start = .
 *(.lcd_res.struct)
 .lcd_res.struct
                0x00000000      0x24c ./Debug/tft_lcd_lcd_rgb_st7282.c.o
                0x00000000                st7282
                0x0000024c                _res_lcd_struct_end = .
 *(.lcd_res.init_tab)
 *(.lcd_res.gamma_tab)
 *(.lcd_res.contra_tab)

.sensor_resource
                0x00000000     0x4554 load address 0x0005104c
 *(.sensor_res.header)
 .sensor_res.header
                0x00000000       0x40 ./Debug/cmos_sensor_cmos_sensor.c.o
                0x00000000                SensorHeader
                0x00000040                _res_sensor_header_item_start = .
 *(.sensor_res.header.items)
 .sensor_res.header.items
                0x00000040       0x48 ./Debug/cmos_sensor_SENSOR_GC0308.c.o
                0x00000040                gc0308_init
 .sensor_res.header.items
                0x00000088       0x48 ./Debug/cmos_sensor_SENSOR_BF20A6.c.o
                0x00000088                bf20a6_init
                0x000000d0                _res_sensor_header_item_end = .
 *(.sensor_res.isp_tab)
 .sensor_res.isp_tab
                0x000000d0     0x2800 ./Debug/src_isp_tab.c.o
                0x000000d0                contra_tab
                0x000007d0                gama
                0x000019d0                color_compress
 *(.sensor_res.struct)
 *fill*         0x000028d0       0x10 
 .sensor_res.struct
                0x000028e0      0xc80 ./Debug/cmos_sensor_SENSOR_GC0308.c.o
 .sensor_res.struct
                0x00003560      0xc80 ./Debug/cmos_sensor_SENSOR_BF20A6.c.o
 *(.sensor_res.init_tab)
 .sensor_res.init_tab
                0x000041e0      0x224 ./Debug/cmos_sensor_SENSOR_GC0308.c.o
 .sensor_res.init_tab
                0x00004404      0x150 ./Debug/cmos_sensor_SENSOR_BF20A6.c.o

.eh_frame       0x00004554     0x83d0 load address 0x000555a0
 *(.eh_frame)
 .eh_frame      0x00004554       0x98 ./Debug/main.c.o
 .eh_frame      0x000045ec      0x43c ./Debug/resource_manager.c.o
                                0x450 (size before relaxing)
 .eh_frame      0x00004a28       0x3c ./Debug/task_audio_playback.c.o
                                 0x50 (size before relaxing)
 .eh_frame      0x00004a64       0x40 ./Debug/task_audio_record.c.o
                                 0x54 (size before relaxing)
 .eh_frame      0x00004aa4      0x1d0 ./Debug/task_deamon.c.o
                                0x1e4 (size before relaxing)
 .eh_frame      0x00004c74       0x78 ./Debug/task_image_encode.c.o
                                 0x8c (size before relaxing)
 .eh_frame      0x00004cec       0x80 ./Debug/task_main.c.o
                                 0x94 (size before relaxing)
 .eh_frame      0x00004d6c       0x1c ./Debug/task_usb.c.o
                                 0x30 (size before relaxing)
 .eh_frame      0x00004d88       0x30 ./Debug/task_video_playback.c.o
                                 0x44 (size before relaxing)
 .eh_frame      0x00004db8       0xa4 ./Debug/task_video_record.c.o
                                 0xb8 (size before relaxing)
 .eh_frame      0x00004e5c       0x30 ./Debug/upgrade.c.o
                                 0x44 (size before relaxing)
 .eh_frame      0x00004e8c       0x88 ./Debug/board.c.o
                                 0x9c (size before relaxing)
 .eh_frame      0x00004f14      0x148 ./Debug/board_bwv1.c.o
                                0x15c (size before relaxing)
 .eh_frame      0x0000505c       0xb0 ./Debug/config.c.o
                                 0xc4 (size before relaxing)
 .eh_frame      0x0000510c      0x220 ./Debug/filelist.c.o
                                0x234 (size before relaxing)
 .eh_frame      0x0000532c       0x18 ./Debug/task_usb_host.c.o
                                 0x2c (size before relaxing)
 .eh_frame      0x00005344       0x8c ./Debug/xos_xmbox.c.o
                                 0xa0 (size before relaxing)
 .eh_frame      0x000053d0       0xd4 ./Debug/xos_xmsgq.c.o
                                 0xe8 (size before relaxing)
 .eh_frame      0x000054a4       0x80 ./Debug/xos_xos.c.o
                                 0x94 (size before relaxing)
 .eh_frame      0x00005524       0x70 ./Debug/xos_xwork.c.o
                                 0x84 (size before relaxing)
 .eh_frame      0x00005594      0x3c0 ./Debug/src_ax32xx_int.c.o
                                0x3d4 (size before relaxing)
 .eh_frame      0x00005954      0x1f8 ./Debug/src_ax32xx_sys.c.o
                                0x20c (size before relaxing)
 .eh_frame      0x00005b4c       0x5c ./Debug/src_ax32xx_dma.c.o
                                 0x70 (size before relaxing)
 .eh_frame      0x00005ba8       0x60 ./Debug/src_ax32xx_wdt.c.o
                                 0x74 (size before relaxing)
 .eh_frame      0x00005c08      0x1bc ./Debug/src_ax32xx_gpio.c.o
                                0x1d0 (size before relaxing)
 .eh_frame      0x00005dc4       0xf4 ./Debug/src_ax32xx_uart.c.o
                                0x108 (size before relaxing)
 .eh_frame      0x00005eb8      0x140 ./Debug/src_ax32xx_timer.c.o
                                0x154 (size before relaxing)
 .eh_frame      0x00005ff8      0x110 ./Debug/src_ax32xx_tminf.c.o
                                0x124 (size before relaxing)
 .eh_frame      0x00006108      0x174 ./Debug/src_ax32xx_spi.c.o
                                0x188 (size before relaxing)
 .eh_frame      0x0000627c      0x2b0 ./Debug/src_ax32xx_rtc.c.o
                                0x2c4 (size before relaxing)
 .eh_frame      0x0000652c       0x80 ./Debug/src_ax32xx_md.c.o
                                 0x94 (size before relaxing)
 .eh_frame      0x000065ac      0x2c8 ./Debug/src_ax32xx_iic.c.o
                                0x2dc (size before relaxing)
 .eh_frame      0x00006874      0x198 ./Debug/src_ax32xx_dac.c.o
                                0x1ac (size before relaxing)
 .eh_frame      0x00006a0c       0x64 ./Debug/src_ax32xx_adc.c.o
                                 0x78 (size before relaxing)
 .eh_frame      0x00006a70      0x110 ./Debug/src_ax32xx_auadc.c.o
                                0x124 (size before relaxing)
 .eh_frame      0x00006b80      0x228 ./Debug/src_ax32xx_isp.c.o
                                0x23c (size before relaxing)
 .eh_frame      0x00006da8       0x38 ./Debug/src_jpeg_table.c.o
                                 0x4c (size before relaxing)
 .eh_frame      0x00006de0      0x2e0 ./Debug/src_ax32xx_usb.c.o
                                0x2f4 (size before relaxing)
 .eh_frame      0x000070c0       0xc0 ./Debug/src_ax32xx_misc.c.o
                                 0xd4 (size before relaxing)
 .eh_frame      0x00007180       0xa4 ./Debug/src_ax32xx_emi.c.o
                                 0xb8 (size before relaxing)
 .eh_frame      0x00007224      0x36c ./Debug/csi_ax32xx_csi.c.o
                                0x380 (size before relaxing)
 .eh_frame      0x00007590      0x474 ./Debug/mjpeg_ax32xx_mjpeg.c.o
                                0x488 (size before relaxing)
 .eh_frame      0x00007a04       0x8c ./Debug/src_hal_adc.c.o
                                 0xa0 (size before relaxing)
 .eh_frame      0x00007a90       0x84 ./Debug/src_hal_csi.c.o
                                 0x98 (size before relaxing)
 .eh_frame      0x00007b14       0xe0 ./Debug/src_hal_dac.c.o
                                 0xf4 (size before relaxing)
 .eh_frame      0x00007bf4       0xdc ./Debug/src_hal_gpio.c.o
                                 0xf0 (size before relaxing)
 .eh_frame      0x00007cd0      0x2c4 ./Debug/src_hal_iic.c.o
                                0x2d8 (size before relaxing)
 .eh_frame      0x00007f94       0x80 ./Debug/src_hal_md.c.o
                                 0x94 (size before relaxing)
 .eh_frame      0x00008014      0x25c ./Debug/src_hal_rtc.c.o
                                0x270 (size before relaxing)
 .eh_frame      0x00008270      0x200 ./Debug/src_hal_sd.c.o
                                0x214 (size before relaxing)
 .eh_frame      0x00008470      0x204 ./Debug/src_hal_spi.c.o
                                0x218 (size before relaxing)
 .eh_frame      0x00008674       0x8c ./Debug/src_hal_timer.c.o
                                 0xa0 (size before relaxing)
 .eh_frame      0x00008700      0x204 ./Debug/src_hal_uart.c.o
                                0x218 (size before relaxing)
 .eh_frame      0x00008904      0x174 ./Debug/src_hal_watermark.c.o
                                0x188 (size before relaxing)
 .eh_frame      0x00008a78       0xa4 ./Debug/src_hal_sys.c.o
                                 0xb8 (size before relaxing)
 .eh_frame      0x00008b1c      0x3b8 ./Debug/src_hal_auadc.c.o
                                0x3cc (size before relaxing)
 .eh_frame      0x00008ed4      0x51c ./Debug/src_hal_mjpeg.c.o
                                0x530 (size before relaxing)
 .eh_frame      0x000093f0       0x1c ./Debug/src_hal_int.c.o
                                 0x30 (size before relaxing)
 .eh_frame      0x0000940c       0xbc ./Debug/src_hal_stream.c.o
                                 0xd0 (size before relaxing)
 .eh_frame      0x000094c8      0x61c ./Debug/isp_hal_isp.c.o
                                0x630 (size before relaxing)
 .eh_frame      0x00009ae4      0x1c8 ./Debug/dusb_hal_usb_api.c.o
                                0x1dc (size before relaxing)
 .eh_frame      0x00009cac      0x368 ./Debug/dusb_hal_usb_dev_enum.c.o
                                0x37c (size before relaxing)
 .eh_frame      0x0000a014      0x400 ./Debug/dusb_hal_usb_msc.c.o
                                0x414 (size before relaxing)
 .eh_frame      0x0000a414       0xac ./Debug/dusb_hal_usb_uac.c.o
                                 0xc0 (size before relaxing)
 .eh_frame      0x0000a4c0      0x1fc ./Debug/dusb_hal_usb_uvc.c.o
                                0x210 (size before relaxing)
 .eh_frame      0x0000a6bc      0x180 ./Debug/husb_hal_usensor.c.o
                                0x194 (size before relaxing)
 .eh_frame      0x0000a83c      0x168 ./Debug/audio_audio_playback.c.o
                                0x17c (size before relaxing)
 .eh_frame      0x0000a9a4      0x148 ./Debug/audio_audio_record.c.o
                                0x15c (size before relaxing)
 .eh_frame      0x0000aaec       0xa0 ./Debug/audio_ring_buffer.c.o
                                 0xb4 (size before relaxing)
 .eh_frame      0x0000ab8c      0x360 ./Debug/video_video_record.c.o
                                0x374 (size before relaxing)
 .eh_frame      0x0000aeec       0x6c ./Debug/image_image_decode.c.o
                                 0x80 (size before relaxing)
 .eh_frame      0x0000af58      0x118 ./Debug/image_image_encode.c.o
                                0x12c (size before relaxing)
 .eh_frame      0x0000b070       0x40 ./Debug/wav_pcm.c.o
                                 0x54 (size before relaxing)
 .eh_frame      0x0000b0b0      0x198 ./Debug/wav_wav.c.o
                                0x1ac (size before relaxing)
 .eh_frame      0x0000b248       0x44 ./Debug/stream_stream.c.o
                                 0x58 (size before relaxing)
 .eh_frame      0x0000b28c      0x128 ./Debug/uartcom_uartcom.c.o
                                0x13c (size before relaxing)
 .eh_frame      0x0000b3b4       0x18 ./Debug/uartcom_uartCrc.c.o
                                 0x2c (size before relaxing)
 .eh_frame      0x0000b3cc      0x1ac ./Debug/cmos_sensor_cmos_sensor.c.o
                                0x1c0 (size before relaxing)
 .eh_frame      0x0000b578       0xc8 ./Debug/nvfs_nvfs.c.o
                                 0xdc (size before relaxing)
 .eh_frame      0x0000b640       0x1c ./Debug/res_ascii.c.o
                                 0x30 (size before relaxing)
 .eh_frame      0x0000b65c       0x1c ./Debug/res_ascii_default_draw.c.o
                                 0x30 (size before relaxing)
 .eh_frame      0x0000b678       0x1c ./Debug/res_ascii_num2_draw.c.o
                                 0x30 (size before relaxing)
 .eh_frame      0x0000b694       0x1c ./Debug/res_ascii_num3_draw.c.o
                                 0x30 (size before relaxing)
 .eh_frame      0x0000b6b0      0x108 ./Debug/res_R.c.o
                                0x11c (size before relaxing)
 .eh_frame      0x0000b7b8      0x154 ../bwlib\libavi.a(aviEncoder.o)
                                0x168 (size before relaxing)
 .eh_frame      0x0000b90c       0xa4 ../bwlib\libavi.a(encoder_std.o)
                                 0xb8 (size before relaxing)
 .eh_frame      0x0000b9b0      0x13c ../bwlib\libavi.a(encoder_odml.o)
                                0x150 (size before relaxing)
 .eh_frame      0x0000baec      0x228 ../bwlib\libfs.a(fs.o)
                                0x23c (size before relaxing)
 .eh_frame      0x0000bd14       0xc0 ../bwlib\libfs.a(diskio.o)
                                 0xd4 (size before relaxing)
 .eh_frame      0x0000bdd4       0xd8 ../bwlib\libfs.a(link_ext.o)
                                 0xec (size before relaxing)
 .eh_frame      0x0000beac      0x890 ../bwlib\libfs.a(ff.o)
                                0x8a4 (size before relaxing)
 .eh_frame      0x0000c73c       0x54 ../bwlib\libfs.a(ffunicode.o)
                                 0x68 (size before relaxing)
 .eh_frame      0x0000c790      0x168 ../bwlib\libsd.a(ax32xx_sd.o)
                                0x17c (size before relaxing)
 .eh_frame      0x0000c8f8       0x2c C:/MinGW-4.7.1/lib/gcc/or1k-elf/4.9.1/no-delay\libgcc.a(_udivdi3.o)
                                 0x40 (size before relaxing)
                0x00000013                _exception_len = ((SIZEOF (.exception) + 0x1ff) / 0x200)
                0x00000001                _exception_sec = (LOADADDR (.exception) / 0x200)
                0x00000014                _text_sec = (LOADADDR (.text) / 0x200)
                0x00000273                _text_len = (((_text_end - _text_start) + 0x1ff) / 0x200)
                0x00000000                _before_load_len = ((SIZEOF (.before_load) + 0x1ff) / 0x200)
                0x00000287                _before_load_sec = (LOADADDR (.before_load) / 0x200)
                0x00001400                __stack_size = 0x1400
                0x00197b40                __sdram_remain_size = (((ORIGIN (sdram) + 0x200000) - _sdram_remian_addr) - __stack_size)
                0x00000001                ASSERT ((((ORIGIN (sdram) + 0x200000) - _sdram_remian_addr) >= __stack_size), No memroy for stack)
                0x021fec00                __bss_end = (_sdram_remian_addr + __sdram_remain_size)
                0x00050e00                _lcd_resource_start_addr = LOADADDR (.lcd_resource)
                0x0000024c                _lcd_resource_size = (_res_lcd_struct_end - _res_lcd_struct_start)
                0x0005104c                _sensor_resource_start_addr = LOADADDR (.sensor_resource)
                0x00000090                _res_sensor_header_len = (_res_sensor_header_item_end - _res_sensor_header_item_start)
                0x021ffffc                PROVIDE (__stack, ((ORIGIN (sdram) + 0x200000) - 0x4))
OUTPUT(./Debug/ax329x_sdk.elf elf32-or1k)

.rela.dyn       0x0000c924        0x0 load address 0x0005d970
 .rela.vector   0x00000000        0x0 ./Debug/ax32xx_reset.S.o
 .rela.bootsec  0x00000000        0x0 ./Debug/ax32xx_reset.S.o
 .rela.text     0x00000000        0x0 ./Debug/ax32xx_reset.S.o
 .rela.text.startup
                0x00000000        0x0 ./Debug/ax32xx_reset.S.o
 .rela.data     0x00000000        0x0 ./Debug/ax32xx_reset.S.o
 .rela.vector.text
                0x00000000        0x0 ./Debug/ax32xx_reset.S.o
 .rela.sensor_res.header
                0x00000000        0x0 ./Debug/ax32xx_reset.S.o

.comment        0x00000000       0x11
 .comment       0x00000000       0x11 ./Debug/main.c.o
                                 0x12 (size before relaxing)
 .comment       0x00000000       0x12 ./Debug/resource_manager.c.o
 .comment       0x00000000       0x12 ./Debug/task_audio_playback.c.o
 .comment       0x00000000       0x12 ./Debug/task_audio_record.c.o
 .comment       0x00000000       0x12 ./Debug/task_deamon.c.o
 .comment       0x00000000       0x12 ./Debug/task_image_encode.c.o
 .comment       0x00000000       0x12 ./Debug/task_main.c.o
 .comment       0x00000000       0x12 ./Debug/task_usb.c.o
 .comment       0x00000000       0x12 ./Debug/task_video_playback.c.o
 .comment       0x00000000       0x12 ./Debug/task_video_record.c.o
 .comment       0x00000000       0x12 ./Debug/upgrade.c.o
 .comment       0x00000000       0x12 ./Debug/board.c.o
 .comment       0x00000000       0x12 ./Debug/board_bwv1.c.o
 .comment       0x00000000       0x12 ./Debug/config.c.o
 .comment       0x00000000       0x12 ./Debug/explorer.c.o
 .comment       0x00000000       0x12 ./Debug/filelist.c.o
 .comment       0x00000000       0x12 ./Debug/task_usb_host.c.o
 .comment       0x00000000       0x12 ./Debug/xos_x_cpu.c.o
 .comment       0x00000000       0x12 ./Debug/xos_xmbox.c.o
 .comment       0x00000000       0x12 ./Debug/xos_xmsgq.c.o
 .comment       0x00000000       0x12 ./Debug/xos_xos.c.o
 .comment       0x00000000       0x12 ./Debug/xos_xwork.c.o
 .comment       0x00000000       0x12 ./Debug/multimedia_user_media.c.o
 .comment       0x00000000       0x12 ./Debug/src_ax32xx_int.c.o
 .comment       0x00000000       0x12 ./Debug/src_ax32xx_sys.c.o
 .comment       0x00000000       0x12 ./Debug/src_ax32xx_dma.c.o
 .comment       0x00000000       0x12 ./Debug/src_ax32xx_wdt.c.o
 .comment       0x00000000       0x12 ./Debug/src_ax32xx_gpio.c.o
 .comment       0x00000000       0x12 ./Debug/src_ax32xx_uart.c.o
 .comment       0x00000000       0x12 ./Debug/src_ax32xx_timer.c.o
 .comment       0x00000000       0x12 ./Debug/src_ax32xx_tminf.c.o
 .comment       0x00000000       0x12 ./Debug/src_ax32xx_spi.c.o
 .comment       0x00000000       0x12 ./Debug/src_ax32xx_rtc.c.o
 .comment       0x00000000       0x12 ./Debug/src_ax32xx_md.c.o
 .comment       0x00000000       0x12 ./Debug/src_ax32xx_iic.c.o
 .comment       0x00000000       0x12 ./Debug/src_ax32xx_dac.c.o
 .comment       0x00000000       0x12 ./Debug/src_ax32xx_adc.c.o
 .comment       0x00000000       0x12 ./Debug/src_ax32xx_auadc.c.o
 .comment       0x00000000       0x12 ./Debug/src_ax32xx_isp.c.o
 .comment       0x00000000       0x12 ./Debug/src_jpeg_table.c.o
 .comment       0x00000000       0x12 ./Debug/src_isp_tab.c.o
 .comment       0x00000000       0x12 ./Debug/src_ax32xx_usb.c.o
 .comment       0x00000000       0x12 ./Debug/src_ax32xx_misc.c.o
 .comment       0x00000000       0x12 ./Debug/src_ax32xx_pip.c.o
 .comment       0x00000000       0x12 ./Debug/src_ax32xx_btuart.c.o
 .comment       0x00000000       0x12 ./Debug/src_ax32xx_crc.c.o
 .comment       0x00000000       0x12 ./Debug/src_ax32xx_emi.c.o
 .comment       0x00000000       0x12 ./Debug/src_ax32xx_rotate.c.o
 .comment       0x00000000       0x12 ./Debug/src_ax32xx_osdcmp.c.o
 .comment       0x00000000       0x12 ./Debug/osd_ax32xx_osd.c.o
 .comment       0x00000000       0x12 ./Debug/csi_ax32xx_csi.c.o
 .comment       0x00000000       0x12 ./Debug/lcd_ax32xx_lcd.c.o
 .comment       0x00000000       0x12 ./Debug/mjpeg_ax32xx_mjpeg.c.o
 .comment       0x00000000       0x12 ./Debug/src_hal_adc.c.o
 .comment       0x00000000       0x12 ./Debug/src_hal_csi.c.o
 .comment       0x00000000       0x12 ./Debug/src_hal_dac.c.o
 .comment       0x00000000       0x12 ./Debug/src_hal_eeprom.c.o
 .comment       0x00000000       0x12 ./Debug/src_hal_gpio.c.o
 .comment       0x00000000       0x12 ./Debug/src_hal_iic.c.o
 .comment       0x00000000       0x12 ./Debug/src_hal_lcd.c.o
 .comment       0x00000000       0x12 ./Debug/src_hal_md.c.o
 .comment       0x00000000       0x12 ./Debug/src_hal_osd.c.o
 .comment       0x00000000       0x12 ./Debug/src_hal_rtc.c.o
 .comment       0x00000000       0x12 ./Debug/src_hal_sd.c.o
 .comment       0x00000000       0x12 ./Debug/src_hal_spi.c.o
 .comment       0x00000000       0x12 ./Debug/src_hal_timer.c.o
 .comment       0x00000000       0x12 ./Debug/src_hal_uart.c.o
 .comment       0x00000000       0x12 ./Debug/src_hal_watermark.c.o
 .comment       0x00000000       0x12 ./Debug/src_hal_sys.c.o
 .comment       0x00000000       0x12 ./Debug/src_hal_auadc.c.o
 .comment       0x00000000       0x12 ./Debug/src_hal_mjpeg.c.o
 .comment       0x00000000       0x12 ./Debug/src_hal_int.c.o
 .comment       0x00000000       0x12 ./Debug/src_hal_wdt.c.o
 .comment       0x00000000       0x12 ./Debug/src_hal_stream.c.o
 .comment       0x00000000       0x12 ./Debug/src_hal_emi.c.o
 .comment       0x00000000       0x12 ./Debug/src_hal_mjpegB.c.o
 .comment       0x00000000       0x12 ./Debug/src_hal_osdcmp.c.o
 .comment       0x00000000       0x12 ./Debug/src_hal_rotate.c.o
 .comment       0x00000000       0x12 ./Debug/src_hal_lcdframe.c.o
 .comment       0x00000000       0x12 ./Debug/isp_hal_isp.c.o
 .comment       0x00000000       0x12 ./Debug/dusb_hal_usb_api.c.o
 .comment       0x00000000       0x12 ./Debug/dusb_hal_usb_dev_enum.c.o
 .comment       0x00000000       0x12 ./Debug/dusb_hal_usb_msc.c.o
 .comment       0x00000000       0x12 ./Debug/dusb_hal_usb_uac.c.o
 .comment       0x00000000       0x12 ./Debug/dusb_hal_usb_uvc.c.o
 .comment       0x00000000       0x12 ./Debug/husb_hal_usb_host_api.c.o
 .comment       0x00000000       0x12 ./Debug/husb_hal_usb_host_enum.c.o
 .comment       0x00000000       0x12 ./Debug/husb_hal_usb_host_tpbulk.c.o
 .comment       0x00000000       0x12 ./Debug/husb_hal_usb_host_uvc.c.o
 .comment       0x00000000       0x12 ./Debug/husb_hal_usensor.c.o
 .comment       0x00000000       0x12 ./Debug/audio_audio_playback.c.o
 .comment       0x00000000       0x12 ./Debug/audio_audio_record.c.o
 .comment       0x00000000       0x12 ./Debug/audio_ring_buffer.c.o
 .comment       0x00000000       0x12 ./Debug/video_video_playback.c.o
 .comment       0x00000000       0x12 ./Debug/video_video_record.c.o
 .comment       0x00000000       0x12 ./Debug/video_video_record_B.c.o
 .comment       0x00000000       0x12 ./Debug/image_image_decode.c.o
 .comment       0x00000000       0x12 ./Debug/image_image_encode.c.o
 .comment       0x00000000       0x12 ./Debug/wav_alaw.c.o
 .comment       0x00000000       0x12 ./Debug/wav_imaadpcm.c.o
 .comment       0x00000000       0x12 ./Debug/wav_pcm.c.o
 .comment       0x00000000       0x12 ./Debug/wav_ulaw.c.o
 .comment       0x00000000       0x12 ./Debug/wav_wav.c.o
 .comment       0x00000000       0x12 ./Debug/stream_stream.c.o
 .comment       0x00000000       0x12 ./Debug/uartcom_uartcom.c.o
 .comment       0x00000000       0x12 ./Debug/uartcom_uartCrc.c.o
 .comment       0x00000000       0x12 ./Debug/gsensor_G_gma301.c.o
 .comment       0x00000000       0x12 ./Debug/gsensor_gsensor.c.o
 .comment       0x00000000       0x12 ./Debug/gsensor_G_sc7a30e.c.o
 .comment       0x00000000       0x12 ./Debug/gsensor_g_da380.c.o
 .comment       0x00000000       0x12 ./Debug/cmos_sensor_cmos_sensor.c.o
 .comment       0x00000000       0x12 ./Debug/cmos_sensor_SENSOR_BF3a03.c.o
 .comment       0x00000000       0x12 ./Debug/cmos_sensor_SENSOR_BF2013.c.o
 .comment       0x00000000       0x12 ./Debug/cmos_sensor_SENSOR_BF3016.c.o
 .comment       0x00000000       0x12 ./Debug/cmos_sensor_SENSOR_BF3703.c.o
 .comment       0x00000000       0x12 ./Debug/cmos_sensor_SENSOR_GC0307.c.o
 .comment       0x00000000       0x12 ./Debug/cmos_sensor_SENSOR_GC0308.c.o
 .comment       0x00000000       0x12 ./Debug/cmos_sensor_SENSOR_GC0309.c.o
 .comment       0x00000000       0x12 ./Debug/cmos_sensor_SENSOR_GC0328.c.o
 .comment       0x00000000       0x12 ./Debug/cmos_sensor_SENSOR_GC1004.c.o
 .comment       0x00000000       0x12 ./Debug/cmos_sensor_SENSOR_H42.c.o
 .comment       0x00000000       0x12 ./Debug/cmos_sensor_SENSOR_H7640.c.o
 .comment       0x00000000       0x12 ./Debug/cmos_sensor_SENSOR_HM1055.c.o
 .comment       0x00000000       0x12 ./Debug/cmos_sensor_SENSOR_IT03A1.c.o
 .comment       0x00000000       0x12 ./Debug/cmos_sensor_SENSOR_NT99141.c.o
 .comment       0x00000000       0x12 ./Debug/cmos_sensor_SENSOR_NT99142.c.o
 .comment       0x00000000       0x12 ./Debug/cmos_sensor_SENSOR_OV7670.c.o
 .comment       0x00000000       0x12 ./Debug/cmos_sensor_SENSOR_OV7725.c.o
 .comment       0x00000000       0x12 ./Debug/cmos_sensor_SENSOR_OV9710.c.o
 .comment       0x00000000       0x12 ./Debug/cmos_sensor_SENSOR_OV9732.c.o
 .comment       0x00000000       0x12 ./Debug/cmos_sensor_SENSOR_SC1045.c.o
 .comment       0x00000000       0x12 ./Debug/cmos_sensor_SENSOR_SIV100B.c.o
 .comment       0x00000000       0x12 ./Debug/cmos_sensor_SENSOR_SIV120B.c.o
 .comment       0x00000000       0x12 ./Debug/cmos_sensor_SENSOR_SIV121DS.c.o
 .comment       0x00000000       0x12 ./Debug/cmos_sensor_SENSOR_SP1409.c.o
 .comment       0x00000000       0x12 ./Debug/cmos_sensor_SENSOR_H62.c.o
 .comment       0x00000000       0x12 ./Debug/cmos_sensor_SENSOR_GC1034.c.o
 .comment       0x00000000       0x12 ./Debug/cmos_sensor_SENSOR_OV7736.c.o
 .comment       0x00000000       0x12 ./Debug/cmos_sensor_SENSOR_SP140A.c.o
 .comment       0x00000000       0x12 ./Debug/cmos_sensor_SENSOR_GC1054.c.o
 .comment       0x00000000       0x12 ./Debug/cmos_sensor_SENSOR_GC1064.c.o
 .comment       0x00000000       0x12 ./Debug/cmos_sensor_SENSOR_H65.c.o
 .comment       0x00000000       0x12 ./Debug/cmos_sensor_SENSOR_SC1243.c.o
 .comment       0x00000000       0x12 ./Debug/cmos_sensor_SNESOR_FPX1002.c.o
 .comment       0x00000000       0x12 ./Debug/cmos_sensor_SENSOR_H63P.c.o
 .comment       0x00000000       0x12 ./Debug/cmos_sensor_SENSOR_BF20A6.c.o
 .comment       0x00000000       0x12 ./Debug/tft_lcd_lcd_mcu_st7789.c.o
 .comment       0x00000000       0x12 ./Debug/tft_lcd_lcd_rgb_jl_lcd.c.o
 .comment       0x00000000       0x12 ./Debug/tft_lcd_lcd_rgb_st7282.c.o
 .comment       0x00000000       0x12 ./Debug/tft_lcd_tft_lcd.c.o
 .comment       0x00000000       0x12 ./Debug/tft_lcd_lcd_mcu_5420.c.o
 .comment       0x00000000       0x12 ./Debug/tft_lcd_lcd_mcu_r61509v.c.o
 .comment       0x00000000       0x12 ./Debug/tft_lcd_lcd_rgb_ili8961.c.o
 .comment       0x00000000       0x12 ./Debug/tft_lcd_lcd_rgb_ili9342c.c.o
 .comment       0x00000000       0x12 ./Debug/tft_lcd_lcd_mcu_ili9328.c.o
 .comment       0x00000000       0x12 ./Debug/tft_lcd_lcd_mcu_hx8352b.c.o
 .comment       0x00000000       0x12 ./Debug/tft_lcd_lcd_mcu_st7789v.c.o
 .comment       0x00000000       0x12 ./Debug/tft_lcd_lcd_mcu_hx8352c.c.o
 .comment       0x00000000       0x12 ./Debug/tft_lcd_lcd_mcu_hx8357b.c.o
 .comment       0x00000000       0x12 ./Debug/tft_lcd_lcd_rgb_ili9806e.c.o
 .comment       0x00000000       0x12 ./Debug/tft_lcd_lcd_rgb_ota5182.c.o
 .comment       0x00000000       0x12 ./Debug/tft_lcd_lcd_rgb_st7701.c.o
 .comment       0x00000000       0x12 ./Debug/tft_lcd_lcd_mcu_lgdp4532.c.o
 .comment       0x00000000       0x12 ./Debug/tft_lcd_lcd_mcu_9225G.c.o
 .comment       0x00000000       0x12 ./Debug/usensor_237a_1.c.o
 .comment       0x00000000       0x12 ./Debug/usensor_usensor.c.o
 .comment       0x00000000       0x12 ./Debug/usensor_237a_2.c.o
 .comment       0x00000000       0x12 ./Debug/nvfs_nvfs.c.o
 .comment       0x00000000       0x12 ./Debug/res_ascii.c.o
 .comment       0x00000000       0x12 ./Debug/res_ascii_default.c.o
 .comment       0x00000000       0x12 ./Debug/res_ascii_default_draw.c.o
 .comment       0x00000000       0x12 ./Debug/res_ascii_num2.c.o
 .comment       0x00000000       0x12 ./Debug/res_ascii_num2_draw.c.o
 .comment       0x00000000       0x12 ./Debug/res_ascii_num3.c.o
 .comment       0x00000000       0x12 ./Debug/res_ascii_num3_draw.c.o
 .comment       0x00000000       0x12 ./Debug/res_ascii_num4.c.o
 .comment       0x00000000       0x12 ./Debug/res_ascii_num4_draw.c.o
 .comment       0x00000000       0x12 ./Debug/res_R.c.o
 .comment       0x00000000       0x12 ../bwlib\libavi.a(aviEncoder.o)
 .comment       0x00000000       0x12 ../bwlib\libavi.a(encoder_std.o)
 .comment       0x00000000       0x12 ../bwlib\libavi.a(encoder_odml.o)
 .comment       0x00000000       0x12 ../bwlib\libfs.a(fs.o)
 .comment       0x00000000       0x12 ../bwlib\libfs.a(diskio.o)
 .comment       0x00000000       0x12 ../bwlib\libfs.a(link_ext.o)
 .comment       0x00000000       0x12 ../bwlib\libfs.a(ff.o)
 .comment       0x00000000       0x12 ../bwlib\libfs.a(ffunicode.o)
 .comment       0x00000000       0x12 ../bwlib\libsd.a(ax32xx_sd.o)
 .comment       0x00000000       0x12 C:/MinGW-4.7.1/or1k-elf/lib/no-delay\libc.a(lib_a-memcmp.o)
 .comment       0x00000000       0x12 C:/MinGW-4.7.1/or1k-elf/lib/no-delay\libc.a(lib_a-memcpy.o)
 .comment       0x00000000       0x12 C:/MinGW-4.7.1/or1k-elf/lib/no-delay\libc.a(lib_a-memset.o)
 .comment       0x00000000       0x12 C:/MinGW-4.7.1/or1k-elf/lib/no-delay\libc.a(lib_a-strcat.o)
 .comment       0x00000000       0x12 C:/MinGW-4.7.1/or1k-elf/lib/no-delay\libc.a(lib_a-strchr.o)
 .comment       0x00000000       0x12 C:/MinGW-4.7.1/or1k-elf/lib/no-delay\libc.a(lib_a-strcmp.o)
 .comment       0x00000000       0x12 C:/MinGW-4.7.1/or1k-elf/lib/no-delay\libc.a(lib_a-strcpy.o)
 .comment       0x00000000       0x12 C:/MinGW-4.7.1/or1k-elf/lib/no-delay\libc.a(lib_a-strlen.o)
 .comment       0x00000000       0x12 C:/MinGW-4.7.1/or1k-elf/lib/no-delay\libc.a(lib_a-strncmp.o)
 .comment       0x00000000       0x12 C:/MinGW-4.7.1/lib/gcc/or1k-elf/4.9.1/no-delay\libgcc.a(_udivdi3.o)
 .comment       0x00000000       0x12 C:/MinGW-4.7.1/lib/gcc/or1k-elf/4.9.1/no-delay\libgcc.a(_clz.o)

.debug_info     0x00000000     0x1113
 .debug_info    0x00000000      0x113 C:/MinGW-4.7.1/or1k-elf/lib/no-delay\libc.a(lib_a-memcmp.o)
 .debug_info    0x00000113      0x131 C:/MinGW-4.7.1/or1k-elf/lib/no-delay\libc.a(lib_a-memcpy.o)
 .debug_info    0x00000244      0x117 C:/MinGW-4.7.1/or1k-elf/lib/no-delay\libc.a(lib_a-memset.o)
 .debug_info    0x0000035b      0x110 C:/MinGW-4.7.1/or1k-elf/lib/no-delay\libc.a(lib_a-strcat.o)
 .debug_info    0x0000046b      0x116 C:/MinGW-4.7.1/or1k-elf/lib/no-delay\libc.a(lib_a-strchr.o)
 .debug_info    0x00000581       0xdd C:/MinGW-4.7.1/or1k-elf/lib/no-delay\libc.a(lib_a-strcmp.o)
 .debug_info    0x0000065e      0x10e C:/MinGW-4.7.1/or1k-elf/lib/no-delay\libc.a(lib_a-strcpy.o)
 .debug_info    0x0000076c       0xdb C:/MinGW-4.7.1/or1k-elf/lib/no-delay\libc.a(lib_a-strlen.o)
 .debug_info    0x00000847       0xf5 C:/MinGW-4.7.1/or1k-elf/lib/no-delay\libc.a(lib_a-strncmp.o)
 .debug_info    0x0000093c      0x71e C:/MinGW-4.7.1/lib/gcc/or1k-elf/4.9.1/no-delay\libgcc.a(_udivdi3.o)
 .debug_info    0x0000105a       0xb9 C:/MinGW-4.7.1/lib/gcc/or1k-elf/4.9.1/no-delay\libgcc.a(_clz.o)

.debug_abbrev   0x00000000      0x6e3
 .debug_abbrev  0x00000000       0x7f C:/MinGW-4.7.1/or1k-elf/lib/no-delay\libc.a(lib_a-memcmp.o)
 .debug_abbrev  0x0000007f       0xab C:/MinGW-4.7.1/or1k-elf/lib/no-delay\libc.a(lib_a-memcpy.o)
 .debug_abbrev  0x0000012a       0x9f C:/MinGW-4.7.1/or1k-elf/lib/no-delay\libc.a(lib_a-memset.o)
 .debug_abbrev  0x000001c9       0xb3 C:/MinGW-4.7.1/or1k-elf/lib/no-delay\libc.a(lib_a-strcat.o)
 .debug_abbrev  0x0000027c       0x83 C:/MinGW-4.7.1/or1k-elf/lib/no-delay\libc.a(lib_a-strchr.o)
 .debug_abbrev  0x000002ff       0x74 C:/MinGW-4.7.1/or1k-elf/lib/no-delay\libc.a(lib_a-strcmp.o)
 .debug_abbrev  0x00000373       0x92 C:/MinGW-4.7.1/or1k-elf/lib/no-delay\libc.a(lib_a-strcpy.o)
 .debug_abbrev  0x00000405       0x90 C:/MinGW-4.7.1/or1k-elf/lib/no-delay\libc.a(lib_a-strlen.o)
 .debug_abbrev  0x00000495       0x81 C:/MinGW-4.7.1/or1k-elf/lib/no-delay\libc.a(lib_a-strncmp.o)
 .debug_abbrev  0x00000516      0x170 C:/MinGW-4.7.1/lib/gcc/or1k-elf/4.9.1/no-delay\libgcc.a(_udivdi3.o)
 .debug_abbrev  0x00000686       0x5d C:/MinGW-4.7.1/lib/gcc/or1k-elf/4.9.1/no-delay\libgcc.a(_clz.o)

.debug_loc      0x00000000     0x1ecd
 .debug_loc     0x00000000      0x102 C:/MinGW-4.7.1/or1k-elf/lib/no-delay\libc.a(lib_a-memcmp.o)
 .debug_loc     0x00000102      0x2ed C:/MinGW-4.7.1/or1k-elf/lib/no-delay\libc.a(lib_a-memcpy.o)
 .debug_loc     0x000003ef      0x1ba C:/MinGW-4.7.1/or1k-elf/lib/no-delay\libc.a(lib_a-memset.o)
 .debug_loc     0x000005a9       0x9c C:/MinGW-4.7.1/or1k-elf/lib/no-delay\libc.a(lib_a-strcat.o)
 .debug_loc     0x00000645      0x13a C:/MinGW-4.7.1/or1k-elf/lib/no-delay\libc.a(lib_a-strchr.o)
 .debug_loc     0x0000077f       0xb0 C:/MinGW-4.7.1/or1k-elf/lib/no-delay\libc.a(lib_a-strcmp.o)
 .debug_loc     0x0000082f       0xc7 C:/MinGW-4.7.1/or1k-elf/lib/no-delay\libc.a(lib_a-strcpy.o)
 .debug_loc     0x000008f6       0x47 C:/MinGW-4.7.1/or1k-elf/lib/no-delay\libc.a(lib_a-strlen.o)
 .debug_loc     0x0000093d       0xce C:/MinGW-4.7.1/or1k-elf/lib/no-delay\libc.a(lib_a-strncmp.o)
 .debug_loc     0x00000a0b     0x14c2 C:/MinGW-4.7.1/lib/gcc/or1k-elf/4.9.1/no-delay\libgcc.a(_udivdi3.o)

.debug_aranges  0x00000000      0x158
 .debug_aranges
                0x00000000       0x20 C:/MinGW-4.7.1/or1k-elf/lib/no-delay\libc.a(lib_a-memcmp.o)
 .debug_aranges
                0x00000020       0x20 C:/MinGW-4.7.1/or1k-elf/lib/no-delay\libc.a(lib_a-memcpy.o)
 .debug_aranges
                0x00000040       0x20 C:/MinGW-4.7.1/or1k-elf/lib/no-delay\libc.a(lib_a-memset.o)
 .debug_aranges
                0x00000060       0x20 C:/MinGW-4.7.1/or1k-elf/lib/no-delay\libc.a(lib_a-strcat.o)
 .debug_aranges
                0x00000080       0x20 C:/MinGW-4.7.1/or1k-elf/lib/no-delay\libc.a(lib_a-strchr.o)
 .debug_aranges
                0x000000a0       0x20 C:/MinGW-4.7.1/or1k-elf/lib/no-delay\libc.a(lib_a-strcmp.o)
 .debug_aranges
                0x000000c0       0x20 C:/MinGW-4.7.1/or1k-elf/lib/no-delay\libc.a(lib_a-strcpy.o)
 .debug_aranges
                0x000000e0       0x20 C:/MinGW-4.7.1/or1k-elf/lib/no-delay\libc.a(lib_a-strlen.o)
 .debug_aranges
                0x00000100       0x20 C:/MinGW-4.7.1/or1k-elf/lib/no-delay\libc.a(lib_a-strncmp.o)
 .debug_aranges
                0x00000120       0x20 C:/MinGW-4.7.1/lib/gcc/or1k-elf/4.9.1/no-delay\libgcc.a(_udivdi3.o)
 .debug_aranges
                0x00000140       0x18 C:/MinGW-4.7.1/lib/gcc/or1k-elf/4.9.1/no-delay\libgcc.a(_clz.o)

.debug_line     0x00000000      0xb52
 .debug_line    0x00000000      0x12b C:/MinGW-4.7.1/or1k-elf/lib/no-delay\libc.a(lib_a-memcmp.o)
 .debug_line    0x0000012b      0x132 C:/MinGW-4.7.1/or1k-elf/lib/no-delay\libc.a(lib_a-memcpy.o)
 .debug_line    0x0000025d      0x13b C:/MinGW-4.7.1/or1k-elf/lib/no-delay\libc.a(lib_a-memset.o)
 .debug_line    0x00000398       0xd2 C:/MinGW-4.7.1/or1k-elf/lib/no-delay\libc.a(lib_a-strcat.o)
 .debug_line    0x0000046a       0xf5 C:/MinGW-4.7.1/or1k-elf/lib/no-delay\libc.a(lib_a-strchr.o)
 .debug_line    0x0000055f       0xec C:/MinGW-4.7.1/or1k-elf/lib/no-delay\libc.a(lib_a-strcmp.o)
 .debug_line    0x0000064b       0xdb C:/MinGW-4.7.1/or1k-elf/lib/no-delay\libc.a(lib_a-strcpy.o)
 .debug_line    0x00000726      0x11f C:/MinGW-4.7.1/or1k-elf/lib/no-delay\libc.a(lib_a-strlen.o)
 .debug_line    0x00000845      0x16c C:/MinGW-4.7.1/or1k-elf/lib/no-delay\libc.a(lib_a-strncmp.o)
 .debug_line    0x000009b1      0x145 C:/MinGW-4.7.1/lib/gcc/or1k-elf/4.9.1/no-delay\libgcc.a(_udivdi3.o)
 .debug_line    0x00000af6       0x5c C:/MinGW-4.7.1/lib/gcc/or1k-elf/4.9.1/no-delay\libgcc.a(_clz.o)

.debug_str      0x00000000      0x5ef
 .debug_str     0x00000000      0x128 C:/MinGW-4.7.1/or1k-elf/lib/no-delay\libc.a(lib_a-memcmp.o)
                                0x161 (size before relaxing)
 .debug_str     0x00000128       0x71 C:/MinGW-4.7.1/or1k-elf/lib/no-delay\libc.a(lib_a-memcpy.o)
                                0x188 (size before relaxing)
 .debug_str     0x00000199       0x5e C:/MinGW-4.7.1/or1k-elf/lib/no-delay\libc.a(lib_a-memset.o)
                                0x175 (size before relaxing)
 .debug_str     0x000001f7       0x5c C:/MinGW-4.7.1/or1k-elf/lib/no-delay\libc.a(lib_a-strcat.o)
                                0x16c (size before relaxing)
 .debug_str     0x00000253       0x4f C:/MinGW-4.7.1/or1k-elf/lib/no-delay\libc.a(lib_a-strchr.o)
                                0x16c (size before relaxing)
 .debug_str     0x000002a2       0x4a C:/MinGW-4.7.1/or1k-elf/lib/no-delay\libc.a(lib_a-strcmp.o)
                                0x15a (size before relaxing)
 .debug_str     0x000002ec       0x43 C:/MinGW-4.7.1/or1k-elf/lib/no-delay\libc.a(lib_a-strcpy.o)
                                0x17c (size before relaxing)
 .debug_str     0x0000032f       0x50 C:/MinGW-4.7.1/or1k-elf/lib/no-delay\libc.a(lib_a-strlen.o)
                                0x174 (size before relaxing)
 .debug_str     0x0000037f       0x4c C:/MinGW-4.7.1/or1k-elf/lib/no-delay\libc.a(lib_a-strncmp.o)
                                0x163 (size before relaxing)
 .debug_str     0x000003cb      0x1b4 C:/MinGW-4.7.1/lib/gcc/or1k-elf/4.9.1/no-delay\libgcc.a(_udivdi3.o)
                                0x25c (size before relaxing)
 .debug_str     0x0000057f       0x70 C:/MinGW-4.7.1/lib/gcc/or1k-elf/4.9.1/no-delay\libgcc.a(_clz.o)
                                0x1a3 (size before relaxing)

.debug_frame    0x00000000      0x16c
 .debug_frame   0x00000000       0x28 C:/MinGW-4.7.1/or1k-elf/lib/no-delay\libc.a(lib_a-memcmp.o)
 .debug_frame   0x00000028       0x28 C:/MinGW-4.7.1/or1k-elf/lib/no-delay\libc.a(lib_a-memcpy.o)
 .debug_frame   0x00000050       0x28 C:/MinGW-4.7.1/or1k-elf/lib/no-delay\libc.a(lib_a-memset.o)
 .debug_frame   0x00000078       0x2c C:/MinGW-4.7.1/or1k-elf/lib/no-delay\libc.a(lib_a-strcat.o)
 .debug_frame   0x000000a4       0x28 C:/MinGW-4.7.1/or1k-elf/lib/no-delay\libc.a(lib_a-strchr.o)
 .debug_frame   0x000000cc       0x28 C:/MinGW-4.7.1/or1k-elf/lib/no-delay\libc.a(lib_a-strcmp.o)
 .debug_frame   0x000000f4       0x28 C:/MinGW-4.7.1/or1k-elf/lib/no-delay\libc.a(lib_a-strcpy.o)
 .debug_frame   0x0000011c       0x28 C:/MinGW-4.7.1/or1k-elf/lib/no-delay\libc.a(lib_a-strlen.o)
 .debug_frame   0x00000144       0x28 C:/MinGW-4.7.1/or1k-elf/lib/no-delay\libc.a(lib_a-strncmp.o)

.debug_ranges   0x00000000      0x180
 .debug_ranges  0x00000000      0x180 C:/MinGW-4.7.1/lib/gcc/or1k-elf/4.9.1/no-delay\libgcc.a(_udivdi3.o)
